
reports/evenOdd/evenOdd.out:     file format ss-coff-little

Disassembly of section .text:

00400140 <__start>:
  400140:	28 00 00 00 	lw $16,0($29)
  400144:	00 00 10 1d 
  400148:	a2 00 00 00 	lui $28,4097
  40014c:	01 10 1c 00 
  400150:	43 00 00 00 	addiu $28,$28,-32032
  400154:	e0 82 1c 1c 
  400158:	43 00 00 00 	addiu $17,$29,4
  40015c:	04 00 11 1d 
  400160:	43 00 00 00 	addiu $3,$17,4
  400164:	04 00 03 11 
  400168:	55 00 00 00 	sll $2,$16,0x2
  40016c:	02 02 10 00 
  400170:	42 00 00 00 	addu $3,$3,$2
  400174:	00 03 02 03 
  400178:	42 00 00 00 	addu $18,$0,$3
  40017c:	00 12 03 00 
  400180:	34 00 00 00 	sw $18,-32588($28)
  400184:	b4 80 12 1c 
  400188:	43 00 00 00 	addiu $29,$29,-24
  40018c:	e8 ff 1d 1d 
  400190:	42 00 00 00 	addu $4,$0,$16
  400194:	00 04 10 00 
  400198:	42 00 00 00 	addu $5,$0,$17
  40019c:	00 05 11 00 
  4001a0:	42 00 00 00 	addu $6,$0,$18
  4001a4:	00 06 12 00 
  4001a8:	02 00 00 00 	jal 4004f0 <__libc_init>
  4001ac:	3c 01 10 00 
  4001b0:	34 00 00 00 	sw $0,-32592($28)
  4001b4:	b0 80 00 1c 
  4001b8:	42 00 00 00 	addu $4,$0,$16
  4001bc:	00 04 10 00 
  4001c0:	42 00 00 00 	addu $5,$0,$17
  4001c4:	00 05 11 00 
  4001c8:	42 00 00 00 	addu $6,$0,$18
  4001cc:	00 06 12 00 
  4001d0:	02 00 00 00 	jal 4001f0 <main>
  4001d4:	7c 00 10 00 
  4001d8:	42 00 00 00 	addu $4,$0,$2
  4001dc:	00 04 02 00 
  4001e0:	02 00 00 00 	jal 400520 <exit>
  4001e4:	48 01 10 00 
	...

004001f0 <main>:
  4001f0:	43 00 00 00 	addiu $29,$29,-32
  4001f4:	e0 ff 1d 1d 
  4001f8:	34 00 00 00 	sw $31,28($29)
  4001fc:	1c 00 1f 1d 
  400200:	34 00 00 00 	sw $30,24($29)
  400204:	18 00 1e 1d 
  400208:	42 00 00 00 	addu $30,$0,$29
  40020c:	00 1e 1d 00 
  400210:	02 00 00 00 	jal 400498 <__main>
  400214:	26 01 10 00 
  400218:	34 00 00 00 	sw $0,16($30)
  40021c:	10 00 00 1e 
  400220:	43 00 00 00 	addiu $2,$0,1
  400224:	01 00 02 00 
  400228:	34 00 00 00 	sw $2,20($30)
  40022c:	14 00 02 1e 
  400230:	28 00 00 00 	lw $2,16($30)
  400234:	10 00 02 1e 
  400238:	5c 00 00 00 	slti $3,$2,10000
  40023c:	10 27 03 02 
  400240:	06 00 00 00 	bne $3,$0,400250 <main+0x60>
  400244:	02 00 00 03 
  400248:	01 00 00 00 	j 4002b0 <main+0xc0>
  40024c:	ac 00 10 00 
  400250:	28 00 00 00 	lw $3,16($30)
  400254:	10 00 03 1e 
  400258:	4f 00 00 00 	andi $2,$3,1
  40025c:	01 00 02 03 
  400260:	05 00 00 00 	beq $2,$0,400288 <main+0x98>
  400264:	08 00 00 02 
  400268:	28 00 00 00 	lw $3,20($30)
  40026c:	14 00 03 1e 
  400270:	43 00 00 00 	addiu $2,$3,1
  400274:	01 00 02 03 
  400278:	42 00 00 00 	addu $3,$0,$2
  40027c:	00 03 02 00 
  400280:	34 00 00 00 	sw $3,20($30)
  400284:	14 00 03 1e 
  400288:	28 00 00 00 	lw $3,16($30)
  40028c:	10 00 03 1e 
  400290:	43 00 00 00 	addiu $2,$3,1
  400294:	01 00 02 03 
  400298:	42 00 00 00 	addu $3,$0,$2
  40029c:	00 03 02 00 
  4002a0:	34 00 00 00 	sw $3,16($30)
  4002a4:	10 00 03 1e 
  4002a8:	01 00 00 00 	j 400230 <main+0x40>
  4002ac:	8c 00 10 00 
  4002b0:	28 00 00 00 	lw $2,20($30)
  4002b4:	14 00 02 1e 
  4002b8:	01 00 00 00 	j 4002c0 <main+0xd0>
  4002bc:	b0 00 10 00 
  4002c0:	42 00 00 00 	addu $29,$0,$30
  4002c4:	00 1d 1e 00 
  4002c8:	28 00 00 00 	lw $31,28($29)
  4002cc:	1c 00 1f 1d 
  4002d0:	28 00 00 00 	lw $30,24($29)
  4002d4:	18 00 1e 1d 
  4002d8:	43 00 00 00 	addiu $29,$29,32
  4002dc:	20 00 1d 1d 
  4002e0:	03 00 00 00 	jr $31
  4002e4:	00 00 00 1f 
	...

004002f0 <__do_global_dtors>:
  4002f0:	43 00 00 00 	addiu $29,$29,-24
  4002f4:	e8 ff 1d 1d 
  4002f8:	34 00 00 00 	sw $16,16($29)
  4002fc:	10 00 10 1d 
  400300:	a2 00 00 00 	lui $16,4096
  400304:	00 10 10 00 
  400308:	43 00 00 00 	addiu $16,$16,940
  40030c:	ac 03 10 10 
  400310:	34 00 00 00 	sw $31,20($29)
  400314:	14 00 1f 1d 
  400318:	28 00 00 00 	lw $2,0($16)
  40031c:	00 00 02 10 
  400320:	05 00 00 00 	beq $2,$0,400350 <__do_global_dtors+0x60>
  400324:	0a 00 00 02 
  400328:	28 00 00 00 	lw $2,0($16)
  40032c:	00 00 02 10 
  400330:	43 00 00 00 	addiu $16,$16,4
  400334:	04 00 10 10 
  400338:	04 00 00 00 	jalr $31,$2
  40033c:	00 1f 00 02 
  400340:	28 00 00 00 	lw $2,0($16)
  400344:	00 00 02 10 
  400348:	06 00 00 00 	bne $2,$0,400328 <__do_global_dtors+0x38>
  40034c:	f6 ff 00 02 
  400350:	28 00 00 00 	lw $31,20($29)
  400354:	14 00 1f 1d 
  400358:	28 00 00 00 	lw $16,16($29)
  40035c:	10 00 10 1d 
  400360:	43 00 00 00 	addiu $29,$29,24
  400364:	18 00 1d 1d 
  400368:	03 00 00 00 	jr $31
  40036c:	00 00 00 1f 

00400370 <__do_global_ctors>:
  400370:	43 00 00 00 	addiu $29,$29,-32
  400374:	e0 ff 1d 1d 
  400378:	34 00 00 00 	sw $31,24($29)
  40037c:	18 00 1f 1d 
  400380:	34 00 00 00 	sw $17,20($29)
  400384:	14 00 11 1d 
  400388:	34 00 00 00 	sw $16,16($29)
  40038c:	10 00 10 1d 
  400390:	a2 00 00 00 	lui $3,4096
  400394:	00 10 03 00 
  400398:	43 00 00 00 	addiu $3,$3,928
  40039c:	a0 03 03 03 
  4003a0:	28 00 00 00 	lw $4,0($3)
  4003a4:	00 00 04 03 
  4003a8:	43 00 00 00 	addiu $2,$0,-1
  4003ac:	ff ff 02 00 
  4003b0:	06 00 00 00 	bne $4,$2,400400 <__do_global_ctors+0x90>
  4003b4:	12 00 02 04 
  4003b8:	a2 00 00 00 	lui $2,4096
  4003bc:	00 10 02 00 
  4003c0:	28 00 00 00 	lw $2,932($2)
  4003c4:	a4 03 02 02 
  4003c8:	42 00 00 00 	addu $4,$0,$0
  4003cc:	00 04 00 00 
  4003d0:	05 00 00 00 	beq $2,$0,400400 <__do_global_ctors+0x90>
  4003d4:	0a 00 00 02 
  4003d8:	43 00 00 00 	addiu $3,$3,4
  4003dc:	04 00 03 03 
  4003e0:	43 00 00 00 	addiu $3,$3,4
  4003e4:	04 00 03 03 
  4003e8:	28 00 00 00 	lw $2,0($3)
  4003ec:	00 00 02 03 
  4003f0:	43 00 00 00 	addiu $4,$4,1
  4003f4:	01 00 04 04 
  4003f8:	06 00 00 00 	bne $2,$0,4003e0 <__do_global_ctors+0x70>
  4003fc:	f8 ff 00 02 
  400400:	42 00 00 00 	addu $17,$0,$4
  400404:	00 11 04 00 
  400408:	05 00 00 00 	beq $17,$0,400458 <__do_global_ctors+0xe8>
  40040c:	12 00 00 11 
  400410:	a2 00 00 00 	lui $3,4096
  400414:	00 10 03 00 
  400418:	43 00 00 00 	addiu $3,$3,928
  40041c:	a0 03 03 03 
  400420:	55 00 00 00 	sll $2,$17,0x2
  400424:	02 02 11 00 
  400428:	42 00 00 00 	addu $16,$2,$3
  40042c:	00 10 03 02 
  400430:	28 00 00 00 	lw $2,0($16)
  400434:	00 00 02 10 
  400438:	43 00 00 00 	addiu $17,$17,-1
  40043c:	ff ff 11 11 
  400440:	04 00 00 00 	jalr $31,$2
  400444:	00 1f 00 02 
  400448:	43 00 00 00 	addiu $16,$16,-4
  40044c:	fc ff 10 10 
  400450:	06 00 00 00 	bne $17,$0,400430 <__do_global_ctors+0xc0>
  400454:	f6 ff 00 11 
  400458:	a2 00 00 00 	lui $4,64
  40045c:	40 00 04 00 
  400460:	43 00 00 00 	addiu $4,$4,752
  400464:	f0 02 04 04 
  400468:	02 00 00 00 	jal 4006c0 <atexit>
  40046c:	b0 01 10 00 
  400470:	28 00 00 00 	lw $31,24($29)
  400474:	18 00 1f 1d 
  400478:	28 00 00 00 	lw $17,20($29)
  40047c:	14 00 11 1d 
  400480:	28 00 00 00 	lw $16,16($29)
  400484:	10 00 10 1d 
  400488:	43 00 00 00 	addiu $29,$29,32
  40048c:	20 00 1d 1d 
  400490:	03 00 00 00 	jr $31
  400494:	00 00 00 1f 

00400498 <__main>:
  400498:	28 00 00 00 	lw $2,-32624($28)
  40049c:	90 80 02 1c 
  4004a0:	43 00 00 00 	addiu $29,$29,-24
  4004a4:	e8 ff 1d 1d 
  4004a8:	34 00 00 00 	sw $31,16($29)
  4004ac:	10 00 1f 1d 
  4004b0:	06 00 00 00 	bne $2,$0,4004d0 <__main+0x38>
  4004b4:	06 00 00 02 
  4004b8:	43 00 00 00 	addiu $2,$0,1
  4004bc:	01 00 02 00 
  4004c0:	34 00 00 00 	sw $2,-32624($28)
  4004c4:	90 80 02 1c 
  4004c8:	02 00 00 00 	jal 400370 <__do_global_ctors>
  4004cc:	dc 00 10 00 
  4004d0:	28 00 00 00 	lw $31,16($29)
  4004d4:	10 00 1f 1d 
  4004d8:	43 00 00 00 	addiu $29,$29,24
  4004dc:	18 00 1d 1d 
  4004e0:	03 00 00 00 	jr $31
  4004e4:	00 00 00 1f 
	...

004004f0 <__libc_init>:
  4004f0:	43 00 00 00 	addiu $29,$29,-24
  4004f4:	e8 ff 1d 1d 
  4004f8:	34 00 00 00 	sw $31,16($29)
  4004fc:	10 00 1f 1d 
  400500:	02 00 00 00 	jal 4008d0 <__init_misc>
  400504:	34 02 10 00 
  400508:	28 00 00 00 	lw $31,16($29)
  40050c:	10 00 1f 1d 
  400510:	43 00 00 00 	addiu $29,$29,24
  400514:	18 00 1d 1d 
  400518:	03 00 00 00 	jr $31
  40051c:	00 00 00 1f 

00400520 <exit>:
  400520:	43 00 00 00 	addiu $29,$29,-48
  400524:	d0 ff 1d 1d 
  400528:	34 00 00 00 	sw $18,24($29)
  40052c:	18 00 12 1d 
  400530:	28 00 00 00 	lw $18,-32736($28)
  400534:	20 80 12 1c 
  400538:	34 00 00 00 	sw $19,28($29)
  40053c:	1c 00 13 1d 
  400540:	42 00 00 00 	addu $19,$0,$4
  400544:	00 13 04 00 
  400548:	34 00 00 00 	sw $31,40($29)
  40054c:	28 00 1f 1d 
  400550:	34 00 00 00 	sw $21,36($29)
  400554:	24 00 15 1d 
  400558:	34 00 00 00 	sw $20,32($29)
  40055c:	20 00 14 1d 
  400560:	34 00 00 00 	sw $17,20($29)
  400564:	14 00 11 1d 
  400568:	34 00 00 00 	sw $16,16($29)
  40056c:	10 00 10 1d 
  400570:	05 00 00 00 	beq $18,$0,400660 <exit+0x140>
  400574:	3a 00 00 12 
  400578:	43 00 00 00 	addiu $21,$0,1
  40057c:	01 00 15 00 
  400580:	43 00 00 00 	addiu $20,$0,2
  400584:	02 00 14 00 
  400588:	28 00 00 00 	lw $16,4($18)
  40058c:	04 00 10 12 
  400590:	42 00 00 00 	addu $2,$0,$16
  400594:	00 02 10 00 
  400598:	43 00 00 00 	addiu $16,$16,-1
  40059c:	ff ff 10 10 
  4005a0:	05 00 00 00 	beq $2,$0,400650 <exit+0x130>
  4005a4:	2a 00 00 02 
  4005a8:	55 00 00 00 	sll $2,$16,0x1
  4005ac:	01 02 10 00 
  4005b0:	42 00 00 00 	addu $2,$2,$16
  4005b4:	00 02 10 02 
  4005b8:	55 00 00 00 	sll $2,$2,0x2
  4005bc:	02 02 02 00 
  4005c0:	43 00 00 00 	addiu $17,$2,8
  4005c4:	08 00 11 02 
  4005c8:	42 00 00 00 	addu $3,$18,$17
  4005cc:	00 03 11 12 
  4005d0:	28 00 00 00 	lw $2,0($3)
  4005d4:	00 00 02 03 
  4005d8:	05 00 00 00 	beq $2,$21,4005f8 <exit+0xd8>
  4005dc:	06 00 15 02 
  4005e0:	05 00 00 00 	beq $2,$0,400630 <exit+0x110>
  4005e4:	12 00 00 02 
  4005e8:	05 00 00 00 	beq $2,$20,400620 <exit+0x100>
  4005ec:	0c 00 14 02 
  4005f0:	01 00 00 00 	j 400630 <exit+0x110>
  4005f4:	8c 01 10 00 
  4005f8:	28 00 00 00 	lw $2,4($3)
  4005fc:	04 00 02 03 
  400600:	28 00 00 00 	lw $5,8($3)
  400604:	08 00 05 03 
  400608:	42 00 00 00 	addu $4,$0,$19
  40060c:	00 04 13 00 
  400610:	04 00 00 00 	jalr $31,$2
  400614:	00 1f 00 02 
  400618:	01 00 00 00 	j 400630 <exit+0x110>
  40061c:	8c 01 10 00 
  400620:	28 00 00 00 	lw $2,4($3)
  400624:	04 00 02 03 
  400628:	04 00 00 00 	jalr $31,$2
  40062c:	00 1f 00 02 
  400630:	43 00 00 00 	addiu $17,$17,-12
  400634:	f4 ff 11 11 
  400638:	42 00 00 00 	addu $2,$0,$16
  40063c:	00 02 10 00 
  400640:	43 00 00 00 	addiu $16,$16,-1
  400644:	ff ff 10 10 
  400648:	06 00 00 00 	bne $2,$0,4005c8 <exit+0xa8>
  40064c:	de ff 00 02 
  400650:	28 00 00 00 	lw $18,0($18)
  400654:	00 00 12 12 
  400658:	06 00 00 00 	bne $18,$0,400588 <exit+0x68>
  40065c:	ca ff 00 12 
  400660:	02 00 00 00 	jal 400960 <_cleanup>
  400664:	58 02 10 00 
  400668:	42 00 00 00 	addu $4,$0,$19
  40066c:	00 04 13 00 
  400670:	02 00 00 00 	jal 4009b0 <_exit>
  400674:	6c 02 10 00 
  400678:	28 00 00 00 	lw $31,40($29)
  40067c:	28 00 1f 1d 
  400680:	28 00 00 00 	lw $21,36($29)
  400684:	24 00 15 1d 
  400688:	28 00 00 00 	lw $20,32($29)
  40068c:	20 00 14 1d 
  400690:	28 00 00 00 	lw $19,28($29)
  400694:	1c 00 13 1d 
  400698:	28 00 00 00 	lw $18,24($29)
  40069c:	18 00 12 1d 
  4006a0:	28 00 00 00 	lw $17,20($29)
  4006a4:	14 00 11 1d 
  4006a8:	28 00 00 00 	lw $16,16($29)
  4006ac:	10 00 10 1d 
  4006b0:	43 00 00 00 	addiu $29,$29,48
  4006b4:	30 00 1d 1d 
  4006b8:	03 00 00 00 	jr $31
  4006bc:	00 00 00 1f 

004006c0 <atexit>:
  4006c0:	43 00 00 00 	addiu $29,$29,-24
  4006c4:	e8 ff 1d 1d 
  4006c8:	34 00 00 00 	sw $16,16($29)
  4006cc:	10 00 10 1d 
  4006d0:	42 00 00 00 	addu $16,$0,$4
  4006d4:	00 10 04 00 
  4006d8:	34 00 00 00 	sw $31,20($29)
  4006dc:	14 00 1f 1d 
  4006e0:	02 00 00 00 	jal 400748 <__new_exitfn>
  4006e4:	d2 01 10 00 
  4006e8:	42 00 00 00 	addu $4,$0,$2
  4006ec:	00 04 02 00 
  4006f0:	05 00 00 00 	beq $4,$0,400720 <atexit+0x60>
  4006f4:	0a 00 00 04 
  4006f8:	42 00 00 00 	addu $2,$0,$0
  4006fc:	00 02 00 00 
  400700:	43 00 00 00 	addiu $3,$0,2
  400704:	02 00 03 00 
  400708:	34 00 00 00 	sw $3,0($4)
  40070c:	00 00 03 04 
  400710:	34 00 00 00 	sw $16,4($4)
  400714:	04 00 10 04 
  400718:	01 00 00 00 	j 400728 <atexit+0x68>
  40071c:	ca 01 10 00 
  400720:	43 00 00 00 	addiu $2,$0,-1
  400724:	ff ff 02 00 
  400728:	28 00 00 00 	lw $31,20($29)
  40072c:	14 00 1f 1d 
  400730:	28 00 00 00 	lw $16,16($29)
  400734:	10 00 10 1d 
  400738:	43 00 00 00 	addiu $29,$29,24
  40073c:	18 00 1d 1d 
  400740:	03 00 00 00 	jr $31
  400744:	00 00 00 1f 

00400748 <__new_exitfn>:
  400748:	28 00 00 00 	lw $7,-32736($28)
  40074c:	20 80 07 1c 
  400750:	43 00 00 00 	addiu $29,$29,-32
  400754:	e0 ff 1d 1d 
  400758:	34 00 00 00 	sw $31,24($29)
  40075c:	18 00 1f 1d 
  400760:	05 00 00 00 	beq $7,$0,400800 <__new_exitfn+0xb8>
  400764:	26 00 00 07 
  400768:	28 00 00 00 	lw $2,4($7)
  40076c:	04 00 02 07 
  400770:	42 00 00 00 	addu $4,$0,$0
  400774:	00 04 00 00 
  400778:	05 00 00 00 	beq $2,$0,4007d8 <__new_exitfn+0x90>
  40077c:	16 00 00 02 
  400780:	42 00 00 00 	addu $8,$0,$2
  400784:	00 08 02 00 
  400788:	42 00 00 00 	addu $3,$0,$7
  40078c:	00 03 07 00 
  400790:	42 00 00 00 	addu $6,$0,$0
  400794:	00 06 00 00 
  400798:	28 00 00 00 	lw $2,8($3)
  40079c:	08 00 02 03 
  4007a0:	42 00 00 00 	addu $5,$0,$6
  4007a4:	00 05 06 00 
  4007a8:	05 00 00 00 	beq $2,$0,400858 <__new_exitfn+0x110>
  4007ac:	2a 00 00 02 
  4007b0:	43 00 00 00 	addiu $3,$3,12
  4007b4:	0c 00 03 03 
  4007b8:	43 00 00 00 	addiu $6,$5,12
  4007bc:	0c 00 06 05 
  4007c0:	43 00 00 00 	addiu $4,$4,1
  4007c4:	01 00 04 04 
  4007c8:	5d 00 00 00 	sltu $2,$4,$8
  4007cc:	00 02 08 04 
  4007d0:	06 00 00 00 	bne $2,$0,400798 <__new_exitfn+0x50>
  4007d4:	f0 ff 00 02 
  4007d8:	28 00 00 00 	lw $3,4($7)
  4007dc:	04 00 03 07 
  4007e0:	5e 00 00 00 	sltiu $2,$3,32
  4007e4:	20 00 02 03 
  4007e8:	06 00 00 00 	bne $2,$0,400870 <__new_exitfn+0x128>
  4007ec:	20 00 00 02 
  4007f0:	28 00 00 00 	lw $7,0($7)
  4007f4:	00 00 07 07 
  4007f8:	06 00 00 00 	bne $7,$0,400768 <__new_exitfn+0x20>
  4007fc:	da ff 00 07 
  400800:	43 00 00 00 	addiu $4,$0,392
  400804:	88 01 04 00 
  400808:	02 00 00 00 	jal 400f78 <malloc>
  40080c:	de 03 10 00 
  400810:	42 00 00 00 	addu $7,$0,$2
  400814:	00 07 02 00 
  400818:	05 00 00 00 	beq $7,$0,4008b0 <__new_exitfn+0x168>
  40081c:	24 00 00 07 
  400820:	28 00 00 00 	lw $4,-32736($28)
  400824:	20 80 04 1c 
  400828:	43 00 00 00 	addiu $2,$7,8
  40082c:	08 00 02 07 
  400830:	43 00 00 00 	addiu $3,$0,1
  400834:	01 00 03 00 
  400838:	34 00 00 00 	sw $3,4($7)
  40083c:	04 00 03 07 
  400840:	34 00 00 00 	sw $4,0($7)
  400844:	00 00 04 07 
  400848:	34 00 00 00 	sw $7,-32736($28)
  40084c:	20 80 07 1c 
  400850:	01 00 00 00 	j 4008b8 <__new_exitfn+0x170>
  400854:	2e 02 10 00 
  400858:	43 00 00 00 	addiu $2,$6,8
  40085c:	08 00 02 06 
  400860:	42 00 00 00 	addu $2,$7,$2
  400864:	00 02 02 07 
  400868:	01 00 00 00 	j 4008b8 <__new_exitfn+0x170>
  40086c:	2e 02 10 00 
  400870:	43 00 00 00 	addiu $2,$3,1
  400874:	01 00 02 03 
  400878:	34 00 00 00 	sw $2,4($7)
  40087c:	04 00 02 07 
  400880:	55 00 00 00 	sll $2,$3,0x1
  400884:	01 02 03 00 
  400888:	42 00 00 00 	addu $2,$2,$3
  40088c:	00 02 03 02 
  400890:	55 00 00 00 	sll $2,$2,0x2
  400894:	02 02 02 00 
  400898:	43 00 00 00 	addiu $2,$2,8
  40089c:	08 00 02 02 
  4008a0:	42 00 00 00 	addu $2,$7,$2
  4008a4:	00 02 02 07 
  4008a8:	01 00 00 00 	j 4008b8 <__new_exitfn+0x170>
  4008ac:	2e 02 10 00 
  4008b0:	42 00 00 00 	addu $2,$0,$0
  4008b4:	00 02 00 00 
  4008b8:	28 00 00 00 	lw $31,24($29)
  4008bc:	18 00 1f 1d 
  4008c0:	43 00 00 00 	addiu $29,$29,32
  4008c4:	20 00 1d 1d 
  4008c8:	03 00 00 00 	jr $31
  4008cc:	00 00 00 1f 

004008d0 <__init_misc>:
  4008d0:	43 00 00 00 	addiu $29,$29,-24
  4008d4:	e8 ff 1d 1d 
  4008d8:	34 00 00 00 	sw $16,16($29)
  4008dc:	10 00 10 1d 
  4008e0:	42 00 00 00 	addu $16,$0,$5
  4008e4:	00 10 05 00 
  4008e8:	34 00 00 00 	sw $31,20($29)
  4008ec:	14 00 1f 1d 
  4008f0:	05 00 00 00 	beq $16,$0,400940 <__init_misc+0x70>
  4008f4:	12 00 00 10 
  4008f8:	28 00 00 00 	lw $4,0($16)
  4008fc:	00 00 04 10 
  400900:	05 00 00 00 	beq $4,$0,400940 <__init_misc+0x70>
  400904:	0e 00 00 04 
  400908:	43 00 00 00 	addiu $5,$0,47
  40090c:	2f 00 05 00 
  400910:	02 00 00 00 	jal 401900 <strrchr>
  400914:	40 06 10 00 
  400918:	06 00 00 00 	bne $2,$0,400930 <__init_misc+0x60>
  40091c:	04 00 00 02 
  400920:	28 00 00 00 	lw $2,0($16)
  400924:	00 00 02 10 
  400928:	01 00 00 00 	j 400938 <__init_misc+0x68>
  40092c:	4e 02 10 00 
  400930:	43 00 00 00 	addiu $2,$2,1
  400934:	01 00 02 02 
  400938:	34 00 00 00 	sw $2,-32716($28)
  40093c:	34 80 02 1c 
  400940:	28 00 00 00 	lw $31,20($29)
  400944:	14 00 1f 1d 
  400948:	28 00 00 00 	lw $16,16($29)
  40094c:	10 00 10 1d 
  400950:	43 00 00 00 	addiu $29,$29,24
  400954:	18 00 1d 1d 
  400958:	03 00 00 00 	jr $31
  40095c:	00 00 00 1f 

00400960 <_cleanup>:
  400960:	43 00 00 00 	addiu $29,$29,-24
  400964:	e8 ff 1d 1d 
  400968:	34 00 00 00 	sw $31,16($29)
  40096c:	10 00 1f 1d 
  400970:	42 00 00 00 	addu $4,$0,$0
  400974:	00 04 00 00 
  400978:	02 00 00 00 	jal 4019b0 <fclose>
  40097c:	6c 06 10 00 
  400980:	28 00 00 00 	lw $31,16($29)
  400984:	10 00 1f 1d 
  400988:	43 00 00 00 	addiu $29,$29,24
  40098c:	18 00 1d 1d 
  400990:	03 00 00 00 	jr $31
  400994:	00 00 00 1f 
	...
  4009a0:	01 00 00 00 	j 401c30 <syscall_error>
  4009a4:	0c 07 10 00 
	...

004009b0 <_exit>:
  4009b0:	43 00 00 00 	addiu $2,$0,1
  4009b4:	01 00 02 00 
  4009b8:	a0 00 00 00 	syscall 
  4009bc:	00 00 00 00 
  4009c0:	06 00 00 00 	bne $7,$0,4009a0 <_cleanup+0x40>
  4009c4:	f6 ff 00 07 
	...

004009d0 <initialize>:
  4009d0:	43 00 00 00 	addiu $29,$29,-24
  4009d4:	e8 ff 1d 1d 
  4009d8:	28 00 00 00 	lw $3,-32688($28)
  4009dc:	50 80 03 1c 
  4009e0:	43 00 00 00 	addiu $4,$0,12288
  4009e4:	00 30 04 00 
  4009e8:	43 00 00 00 	addiu $2,$0,1024
  4009ec:	00 04 02 00 
  4009f0:	34 00 00 00 	sw $31,20($29)
  4009f4:	14 00 1f 1d 
  4009f8:	34 00 00 00 	sw $16,16($29)
  4009fc:	10 00 10 1d 
  400a00:	34 00 00 00 	sw $2,-32608($28)
  400a04:	a0 80 02 1c 
  400a08:	04 00 00 00 	jalr $31,$3
  400a0c:	00 1f 00 03 
  400a10:	42 00 00 00 	addu $16,$0,$2
  400a14:	00 10 02 00 
  400a18:	4f 00 00 00 	andi $2,$16,4095
  400a1c:	ff 0f 02 10 
  400a20:	05 00 00 00 	beq $2,$0,400a50 <initialize+0x80>
  400a24:	0a 00 00 02 
  400a28:	43 00 00 00 	addiu $4,$0,4096
  400a2c:	00 10 04 00 
  400a30:	45 00 00 00 	subu $4,$4,$2
  400a34:	00 04 02 04 
  400a38:	28 00 00 00 	lw $2,-32688($28)
  400a3c:	50 80 02 1c 
  400a40:	42 00 00 00 	addu $16,$16,$4
  400a44:	00 10 04 10 
  400a48:	04 00 00 00 	jalr $31,$2
  400a4c:	00 1f 00 02 
  400a50:	28 00 00 00 	lw $2,-32540($28)
  400a54:	e4 80 02 1c 
  400a58:	05 00 00 00 	beq $2,$0,400a68 <initialize+0x98>
  400a5c:	02 00 00 02 
  400a60:	04 00 00 00 	jalr $31,$2
  400a64:	00 1f 00 02 
  400a68:	34 00 00 00 	sw $16,-32536($28)
  400a6c:	e8 80 10 1c 
  400a70:	05 00 00 00 	beq $16,$0,400b30 <initialize+0x160>
  400a74:	2e 00 00 10 
  400a78:	28 00 00 00 	lw $2,-32608($28)
  400a7c:	a0 80 02 1c 
  400a80:	42 00 00 00 	addu $4,$0,$16
  400a84:	00 04 10 00 
  400a88:	42 00 00 00 	addu $5,$0,$0
  400a8c:	00 05 00 00 
  400a90:	55 00 00 00 	sll $6,$2,0x1
  400a94:	01 06 02 00 
  400a98:	42 00 00 00 	addu $6,$6,$2
  400a9c:	00 06 02 06 
  400aa0:	55 00 00 00 	sll $6,$6,0x2
  400aa4:	02 06 06 00 
  400aa8:	02 00 00 00 	jal 401ca0 <memset>
  400aac:	28 07 10 00 
  400ab0:	28 00 00 00 	lw $4,-32536($28)
  400ab4:	e8 80 04 1c 
  400ab8:	28 00 00 00 	lw $5,-32608($28)
  400abc:	a0 80 05 1c 
  400ac0:	43 00 00 00 	addiu $2,$0,1
  400ac4:	01 00 02 00 
  400ac8:	43 00 00 00 	addiu $3,$0,1
  400acc:	01 00 03 00 
  400ad0:	34 00 00 00 	sw $0,-32548($28)
  400ad4:	dc 80 00 1c 
  400ad8:	34 00 00 00 	sw $3,-32520($28)
  400adc:	f8 80 03 1c 
  400ae0:	34 00 00 00 	sw $3,-32532($28)
  400ae4:	ec 80 03 1c 
  400ae8:	55 00 00 00 	sll $3,$5,0x1
  400aec:	01 03 05 00 
  400af0:	42 00 00 00 	addu $3,$3,$5
  400af4:	00 03 05 03 
  400af8:	55 00 00 00 	sll $3,$3,0x2
  400afc:	02 03 03 00 
  400b00:	34 00 00 00 	sw $0,0($4)
  400b04:	00 00 00 04 
  400b08:	34 00 00 00 	sw $0,8($4)
  400b0c:	08 00 00 04 
  400b10:	34 00 00 00 	sw $0,4($4)
  400b14:	04 00 00 04 
  400b18:	34 00 00 00 	sw $4,-32524($28)
  400b1c:	f4 80 04 1c 
  400b20:	34 00 00 00 	sw $3,-32560($28)
  400b24:	d0 80 03 1c 
  400b28:	01 00 00 00 	j 400b38 <initialize+0x168>
  400b2c:	ce 02 10 00 
  400b30:	42 00 00 00 	addu $2,$0,$0
  400b34:	00 02 00 00 
  400b38:	28 00 00 00 	lw $31,20($29)
  400b3c:	14 00 1f 1d 
  400b40:	28 00 00 00 	lw $16,16($29)
  400b44:	10 00 10 1d 
  400b48:	43 00 00 00 	addiu $29,$29,24
  400b4c:	18 00 1d 1d 
  400b50:	03 00 00 00 	jr $31
  400b54:	00 00 00 1f 

00400b58 <morecore>:
  400b58:	28 00 00 00 	lw $2,-32688($28)
  400b5c:	50 80 02 1c 
  400b60:	43 00 00 00 	addiu $29,$29,-40
  400b64:	d8 ff 1d 1d 
  400b68:	34 00 00 00 	sw $19,28($29)
  400b6c:	1c 00 13 1d 
  400b70:	42 00 00 00 	addu $19,$0,$4
  400b74:	00 13 04 00 
  400b78:	34 00 00 00 	sw $31,36($29)
  400b7c:	24 00 1f 1d 
  400b80:	34 00 00 00 	sw $20,32($29)
  400b84:	20 00 14 1d 
  400b88:	34 00 00 00 	sw $18,24($29)
  400b8c:	18 00 12 1d 
  400b90:	34 00 00 00 	sw $17,20($29)
  400b94:	14 00 11 1d 
  400b98:	34 00 00 00 	sw $16,16($29)
  400b9c:	10 00 10 1d 
  400ba0:	04 00 00 00 	jalr $31,$2
  400ba4:	00 1f 00 02 
  400ba8:	42 00 00 00 	addu $16,$0,$2
  400bac:	00 10 02 00 
  400bb0:	4f 00 00 00 	andi $2,$16,4095
  400bb4:	ff 0f 02 10 
  400bb8:	05 00 00 00 	beq $2,$0,400be8 <morecore+0x90>
  400bbc:	0a 00 00 02 
  400bc0:	43 00 00 00 	addiu $4,$0,4096
  400bc4:	00 10 04 00 
  400bc8:	45 00 00 00 	subu $4,$4,$2
  400bcc:	00 04 02 04 
  400bd0:	28 00 00 00 	lw $2,-32688($28)
  400bd4:	50 80 02 1c 
  400bd8:	42 00 00 00 	addu $16,$16,$4
  400bdc:	00 10 04 10 
  400be0:	04 00 00 00 	jalr $31,$2
  400be4:	00 1f 00 02 
  400be8:	28 00 00 00 	lw $2,-32540($28)
  400bec:	e4 80 02 1c 
  400bf0:	05 00 00 00 	beq $2,$0,400c00 <morecore+0xa8>
  400bf4:	02 00 00 02 
  400bf8:	04 00 00 00 	jalr $31,$2
  400bfc:	00 1f 00 02 
  400c00:	42 00 00 00 	addu $18,$0,$16
  400c04:	00 12 10 00 
  400c08:	06 00 00 00 	bne $18,$0,400c20 <morecore+0xc8>
  400c0c:	04 00 00 12 
  400c10:	42 00 00 00 	addu $2,$0,$0
  400c14:	00 02 00 00 
  400c18:	01 00 00 00 	j 400f38 <morecore+0x3e0>
  400c1c:	ce 03 10 00 
  400c20:	28 00 00 00 	lw $5,-32524($28)
  400c24:	f4 80 05 1c 
  400c28:	42 00 00 00 	addu $4,$18,$19
  400c2c:	00 04 13 12 
  400c30:	45 00 00 00 	subu $2,$4,$5
  400c34:	00 02 05 04 
  400c38:	0a 00 00 00 	bgez $2,400c48 <morecore+0xf0>
  400c3c:	02 00 00 02 
  400c40:	43 00 00 00 	addiu $2,$2,4095
  400c44:	ff 0f 02 02 
  400c48:	28 00 00 00 	lw $3,-32608($28)
  400c4c:	a0 80 03 1c 
  400c50:	59 00 00 00 	sra $2,$2,0xc
  400c54:	0c 02 02 00 
  400c58:	43 00 00 00 	addiu $2,$2,1
  400c5c:	01 00 02 02 
  400c60:	5d 00 00 00 	sltu $2,$3,$2
  400c64:	00 02 02 03 
  400c68:	05 00 00 00 	beq $2,$0,400ef0 <morecore+0x398>
  400c6c:	a0 00 00 02 
  400c70:	42 00 00 00 	addu $17,$0,$3
  400c74:	00 11 03 00 
  400c78:	42 00 00 00 	addu $3,$0,$5
  400c7c:	00 03 05 00 
  400c80:	45 00 00 00 	subu $2,$4,$3
  400c84:	00 02 03 04 
  400c88:	0a 00 00 00 	bgez $2,400c98 <morecore+0x140>
  400c8c:	02 00 00 02 
  400c90:	43 00 00 00 	addiu $2,$2,4095
  400c94:	ff 0f 02 02 
  400c98:	59 00 00 00 	sra $2,$2,0xc
  400c9c:	0c 02 02 00 
  400ca0:	43 00 00 00 	addiu $2,$2,1
  400ca4:	01 00 02 02 
  400ca8:	5d 00 00 00 	sltu $2,$17,$2
  400cac:	00 02 02 11 
  400cb0:	05 00 00 00 	beq $2,$0,400cc8 <morecore+0x170>
  400cb4:	04 00 00 02 
  400cb8:	55 00 00 00 	sll $17,$17,0x1
  400cbc:	01 11 11 00 
  400cc0:	01 00 00 00 	j 400c80 <morecore+0x128>
  400cc4:	20 03 10 00 
  400cc8:	55 00 00 00 	sll $2,$17,0x1
  400ccc:	01 02 11 00 
  400cd0:	42 00 00 00 	addu $2,$2,$17
  400cd4:	00 02 11 02 
  400cd8:	28 00 00 00 	lw $3,-32688($28)
  400cdc:	50 80 03 1c 
  400ce0:	55 00 00 00 	sll $20,$2,0x2
  400ce4:	02 14 02 00 
  400ce8:	42 00 00 00 	addu $4,$0,$20
  400cec:	00 04 14 00 
  400cf0:	04 00 00 00 	jalr $31,$3
  400cf4:	00 1f 00 03 
  400cf8:	42 00 00 00 	addu $16,$0,$2
  400cfc:	00 10 02 00 
  400d00:	4f 00 00 00 	andi $2,$16,4095
  400d04:	ff 0f 02 10 
  400d08:	05 00 00 00 	beq $2,$0,400d38 <morecore+0x1e0>
  400d0c:	0a 00 00 02 
  400d10:	43 00 00 00 	addiu $4,$0,4096
  400d14:	00 10 04 00 
  400d18:	45 00 00 00 	subu $4,$4,$2
  400d1c:	00 04 02 04 
  400d20:	28 00 00 00 	lw $2,-32688($28)
  400d24:	50 80 02 1c 
  400d28:	42 00 00 00 	addu $16,$16,$4
  400d2c:	00 10 04 10 
  400d30:	04 00 00 00 	jalr $31,$2
  400d34:	00 1f 00 02 
  400d38:	28 00 00 00 	lw $2,-32540($28)
  400d3c:	e4 80 02 1c 
  400d40:	05 00 00 00 	beq $2,$0,400d50 <morecore+0x1f8>
  400d44:	02 00 00 02 
  400d48:	04 00 00 00 	jalr $31,$2
  400d4c:	00 1f 00 02 
  400d50:	06 00 00 00 	bne $16,$0,400d80 <morecore+0x228>
  400d54:	0a 00 00 10 
  400d58:	28 00 00 00 	lw $2,-32688($28)
  400d5c:	50 80 02 1c 
  400d60:	45 00 00 00 	subu $4,$0,$19
  400d64:	00 04 13 00 
  400d68:	04 00 00 00 	jalr $31,$2
  400d6c:	00 1f 00 02 
  400d70:	42 00 00 00 	addu $2,$0,$0
  400d74:	00 02 00 00 
  400d78:	01 00 00 00 	j 400f38 <morecore+0x3e0>
  400d7c:	ce 03 10 00 
  400d80:	28 00 00 00 	lw $2,-32608($28)
  400d84:	a0 80 02 1c 
  400d88:	42 00 00 00 	addu $4,$0,$16
  400d8c:	00 04 10 00 
  400d90:	28 00 00 00 	lw $5,-32536($28)
  400d94:	e8 80 05 1c 
  400d98:	55 00 00 00 	sll $6,$2,0x1
  400d9c:	01 06 02 00 
  400da0:	42 00 00 00 	addu $6,$6,$2
  400da4:	00 06 02 06 
  400da8:	55 00 00 00 	sll $6,$6,0x2
  400dac:	02 06 06 00 
  400db0:	02 00 00 00 	jal 401e10 <memcpy>
  400db4:	84 07 10 00 
  400db8:	28 00 00 00 	lw $2,-32608($28)
  400dbc:	a0 80 02 1c 
  400dc0:	42 00 00 00 	addu $5,$0,$0
  400dc4:	00 05 00 00 
  400dc8:	55 00 00 00 	sll $4,$2,0x1
  400dcc:	01 04 02 00 
  400dd0:	42 00 00 00 	addu $4,$4,$2
  400dd4:	00 04 02 04 
  400dd8:	55 00 00 00 	sll $4,$4,0x2
  400ddc:	02 04 04 00 
  400de0:	42 00 00 00 	addu $4,$16,$4
  400de4:	00 04 04 10 
  400de8:	45 00 00 00 	subu $2,$17,$2
  400dec:	00 02 02 11 
  400df0:	55 00 00 00 	sll $6,$2,0x1
  400df4:	01 06 02 00 
  400df8:	42 00 00 00 	addu $6,$6,$2
  400dfc:	00 06 02 06 
  400e00:	55 00 00 00 	sll $6,$6,0x2
  400e04:	02 06 06 00 
  400e08:	02 00 00 00 	jal 401ca0 <memset>
  400e0c:	28 07 10 00 
  400e10:	28 00 00 00 	lw $4,-32536($28)
  400e14:	e8 80 04 1c 
  400e18:	28 00 00 00 	lw $2,-32524($28)
  400e1c:	f4 80 02 1c 
  400e20:	45 00 00 00 	subu $5,$4,$2
  400e24:	00 05 02 04 
  400e28:	42 00 00 00 	addu $3,$0,$5
  400e2c:	00 03 05 00 
  400e30:	0a 00 00 00 	bgez $5,400e40 <morecore+0x2e8>
  400e34:	02 00 00 05 
  400e38:	43 00 00 00 	addiu $3,$5,4095
  400e3c:	ff 0f 03 05 
  400e40:	59 00 00 00 	sra $3,$3,0xc
  400e44:	0c 03 03 00 
  400e48:	55 00 00 00 	sll $2,$3,0x1
  400e4c:	01 02 03 00 
  400e50:	42 00 00 00 	addu $2,$2,$3
  400e54:	00 02 03 02 
  400e58:	55 00 00 00 	sll $2,$2,0x2
  400e5c:	02 02 02 00 
  400e60:	42 00 00 00 	addu $6,$2,$16
  400e64:	00 06 10 02 
  400e68:	34 00 00 00 	sw $0,12($6)
  400e6c:	0c 00 00 06 
  400e70:	28 00 00 00 	lw $3,-32608($28)
  400e74:	a0 80 03 1c 
  400e78:	28 00 00 00 	lw $5,-32520($28)
  400e7c:	f8 80 05 1c 
  400e80:	34 00 00 00 	sw $16,-32536($28)
  400e84:	e8 80 10 1c 
  400e88:	55 00 00 00 	sll $2,$3,0x1
  400e8c:	01 02 03 00 
  400e90:	42 00 00 00 	addu $2,$2,$3
  400e94:	00 02 03 02 
  400e98:	55 00 00 00 	sll $2,$2,0x2
  400e9c:	02 02 02 00 
  400ea0:	28 00 00 00 	lw $3,-32560($28)
  400ea4:	d0 80 03 1c 
  400ea8:	43 00 00 00 	addiu $2,$2,4095
  400eac:	ff 0f 02 02 
  400eb0:	57 00 00 00 	srl $2,$2,0xc
  400eb4:	0c 02 02 00 
  400eb8:	43 00 00 00 	addiu $5,$5,1
  400ebc:	01 00 05 05 
  400ec0:	34 00 00 00 	sw $2,16($6)
  400ec4:	10 00 02 06 
  400ec8:	34 00 00 00 	sw $5,-32520($28)
  400ecc:	f8 80 05 1c 
  400ed0:	42 00 00 00 	addu $3,$20,$3
  400ed4:	00 03 03 14 
  400ed8:	34 00 00 00 	sw $3,-32560($28)
  400edc:	d0 80 03 1c 
  400ee0:	02 00 00 00 	jal 401fd0 <_free_internal>
  400ee4:	f4 07 10 00 
  400ee8:	34 00 00 00 	sw $17,-32608($28)
  400eec:	a0 80 11 1c 
  400ef0:	28 00 00 00 	lw $3,-32524($28)
  400ef4:	f4 80 03 1c 
  400ef8:	42 00 00 00 	addu $2,$18,$19
  400efc:	00 02 13 12 
  400f00:	45 00 00 00 	subu $2,$2,$3
  400f04:	00 02 03 02 
  400f08:	0a 00 00 00 	bgez $2,400f18 <morecore+0x3c0>
  400f0c:	02 00 00 02 
  400f10:	43 00 00 00 	addiu $2,$2,4095
  400f14:	ff 0f 02 02 
  400f18:	59 00 00 00 	sra $2,$2,0xc
  400f1c:	0c 02 02 00 
  400f20:	43 00 00 00 	addiu $2,$2,1
  400f24:	01 00 02 02 
  400f28:	34 00 00 00 	sw $2,-32544($28)
  400f2c:	e0 80 02 1c 
  400f30:	42 00 00 00 	addu $2,$0,$18
  400f34:	00 02 12 00 
  400f38:	28 00 00 00 	lw $31,36($29)
  400f3c:	24 00 1f 1d 
  400f40:	28 00 00 00 	lw $20,32($29)
  400f44:	20 00 14 1d 
  400f48:	28 00 00 00 	lw $19,28($29)
  400f4c:	1c 00 13 1d 
  400f50:	28 00 00 00 	lw $18,24($29)
  400f54:	18 00 12 1d 
  400f58:	28 00 00 00 	lw $17,20($29)
  400f5c:	14 00 11 1d 
  400f60:	28 00 00 00 	lw $16,16($29)
  400f64:	10 00 10 1d 
  400f68:	43 00 00 00 	addiu $29,$29,40
  400f6c:	28 00 1d 1d 
  400f70:	03 00 00 00 	jr $31
  400f74:	00 00 00 1f 

00400f78 <malloc>:
  400f78:	28 00 00 00 	lw $2,-32556($28)
  400f7c:	d4 80 02 1c 
  400f80:	43 00 00 00 	addiu $29,$29,-40
  400f84:	d8 ff 1d 1d 
  400f88:	34 00 00 00 	sw $16,16($29)
  400f8c:	10 00 10 1d 
  400f90:	42 00 00 00 	addu $16,$0,$4
  400f94:	00 10 04 00 
  400f98:	34 00 00 00 	sw $31,36($29)
  400f9c:	24 00 1f 1d 
  400fa0:	34 00 00 00 	sw $20,32($29)
  400fa4:	20 00 14 1d 
  400fa8:	34 00 00 00 	sw $19,28($29)
  400fac:	1c 00 13 1d 
  400fb0:	34 00 00 00 	sw $18,24($29)
  400fb4:	18 00 12 1d 
  400fb8:	34 00 00 00 	sw $17,20($29)
  400fbc:	14 00 11 1d 
  400fc0:	05 00 00 00 	beq $2,$0,400fd8 <malloc+0x60>
  400fc4:	04 00 00 02 
  400fc8:	04 00 00 00 	jalr $31,$2
  400fcc:	00 1f 00 02 
  400fd0:	01 00 00 00 	j 4018b8 <malloc+0x940>
  400fd4:	2e 06 10 00 
  400fd8:	28 00 00 00 	lw $2,-32532($28)
  400fdc:	ec 80 02 1c 
  400fe0:	06 00 00 00 	bne $2,$0,400ff8 <malloc+0x80>
  400fe4:	04 00 00 02 
  400fe8:	02 00 00 00 	jal 4009d0 <initialize>
  400fec:	74 02 10 00 
  400ff0:	05 00 00 00 	beq $2,$0,401788 <malloc+0x810>
  400ff4:	e4 01 00 02 
  400ff8:	5e 00 00 00 	sltiu $2,$16,8
  400ffc:	08 00 02 10 
  401000:	05 00 00 00 	beq $2,$0,401010 <malloc+0x98>
  401004:	02 00 00 02 
  401008:	43 00 00 00 	addiu $16,$0,8
  40100c:	08 00 10 00 
  401010:	5e 00 00 00 	sltiu $2,$16,2049
  401014:	01 08 02 10 
  401018:	05 00 00 00 	beq $2,$0,4013b0 <malloc+0x438>
  40101c:	e4 00 00 02 
  401020:	43 00 00 00 	addiu $17,$0,1
  401024:	01 00 11 00 
  401028:	43 00 00 00 	addiu $16,$16,-1
  40102c:	ff ff 10 10 
  401030:	57 00 00 00 	srl $16,$16,0x1
  401034:	01 10 10 00 
  401038:	05 00 00 00 	beq $16,$0,401058 <malloc+0xe0>
  40103c:	06 00 00 10 
  401040:	43 00 00 00 	addiu $17,$17,1
  401044:	01 00 11 11 
  401048:	57 00 00 00 	srl $16,$16,0x1
  40104c:	01 10 10 00 
  401050:	06 00 00 00 	bne $16,$0,401040 <malloc+0xc8>
  401054:	fa ff 00 10 
  401058:	55 00 00 00 	sll $16,$17,0x3
  40105c:	03 10 11 00 
  401060:	a2 00 00 00 	lui $2,4096
  401064:	00 10 02 00 
  401068:	42 00 00 00 	addu $2,$2,$16
  40106c:	00 02 10 02 
  401070:	28 00 00 00 	lw $2,1008($2)
  401074:	f0 03 02 02 
  401078:	05 00 00 00 	beq $2,$0,4011d0 <malloc+0x258>
  40107c:	54 00 00 02 
  401080:	42 00 00 00 	addu $6,$0,$2
  401084:	00 06 02 00 
  401088:	28 00 00 00 	lw $3,4($6)
  40108c:	04 00 03 06 
  401090:	28 00 00 00 	lw $2,0($6)
  401094:	00 00 02 06 
  401098:	34 00 00 00 	sw $2,0($3)
  40109c:	00 00 02 03 
  4010a0:	28 00 00 00 	lw $3,0($6)
  4010a4:	00 00 03 06 
  4010a8:	05 00 00 00 	beq $3,$0,4010c0 <malloc+0x148>
  4010ac:	04 00 00 03 
  4010b0:	28 00 00 00 	lw $2,4($6)
  4010b4:	04 00 02 06 
  4010b8:	34 00 00 00 	sw $2,4($3)
  4010bc:	04 00 02 03 
  4010c0:	28 00 00 00 	lw $2,-32524($28)
  4010c4:	f4 80 02 1c 
  4010c8:	45 00 00 00 	subu $2,$6,$2
  4010cc:	00 02 02 06 
  4010d0:	0a 00 00 00 	bgez $2,4010e0 <malloc+0x168>
  4010d4:	02 00 00 02 
  4010d8:	43 00 00 00 	addiu $2,$2,4095
  4010dc:	ff 0f 02 02 
  4010e0:	59 00 00 00 	sra $2,$2,0xc
  4010e4:	0c 02 02 00 
  4010e8:	43 00 00 00 	addiu $7,$2,1
  4010ec:	01 00 07 02 
  4010f0:	28 00 00 00 	lw $3,-32536($28)
  4010f4:	e8 80 03 1c 
  4010f8:	55 00 00 00 	sll $2,$7,0x1
  4010fc:	01 02 07 00 
  401100:	42 00 00 00 	addu $2,$2,$7
  401104:	00 02 07 02 
  401108:	55 00 00 00 	sll $2,$2,0x2
  40110c:	02 02 02 00 
  401110:	42 00 00 00 	addu $3,$2,$3
  401114:	00 03 03 02 
  401118:	28 00 00 00 	lw $2,4($3)
  40111c:	04 00 02 03 
  401120:	43 00 00 00 	addiu $2,$2,-1
  401124:	ff ff 02 02 
  401128:	34 00 00 00 	sw $2,4($3)
  40112c:	04 00 02 03 
  401130:	05 00 00 00 	beq $2,$0,401158 <malloc+0x1e0>
  401134:	08 00 00 02 
  401138:	28 00 00 00 	lw $2,0($6)
  40113c:	00 00 02 06 
  401140:	4f 00 00 00 	andi $2,$2,4095
  401144:	ff 0f 02 02 
  401148:	58 00 00 00 	srlv $2,$2,$17
  40114c:	00 02 02 11 
  401150:	34 00 00 00 	sw $2,8($3)
  401154:	08 00 02 03 
  401158:	28 00 00 00 	lw $2,-32520($28)
  40115c:	f8 80 02 1c 
  401160:	43 00 00 00 	addiu $5,$0,1
  401164:	01 00 05 00 
  401168:	28 00 00 00 	lw $3,-32552($28)
  40116c:	d8 80 03 1c 
  401170:	28 00 00 00 	lw $4,-32528($28)
  401174:	f0 80 04 1c 
  401178:	56 00 00 00 	sllv $5,$5,$17
  40117c:	00 05 05 11 
  401180:	43 00 00 00 	addiu $2,$2,1
  401184:	01 00 02 02 
  401188:	34 00 00 00 	sw $2,-32520($28)
  40118c:	f8 80 02 1c 
  401190:	28 00 00 00 	lw $2,-32560($28)
  401194:	d0 80 02 1c 
  401198:	43 00 00 00 	addiu $3,$3,-1
  40119c:	ff ff 03 03 
  4011a0:	45 00 00 00 	subu $4,$4,$5
  4011a4:	00 04 05 04 
  4011a8:	34 00 00 00 	sw $3,-32552($28)
  4011ac:	d8 80 03 1c 
  4011b0:	34 00 00 00 	sw $4,-32528($28)
  4011b4:	f0 80 04 1c 
  4011b8:	42 00 00 00 	addu $2,$5,$2
  4011bc:	00 02 02 05 
  4011c0:	34 00 00 00 	sw $2,-32560($28)
  4011c4:	d0 80 02 1c 
  4011c8:	01 00 00 00 	j 4018b0 <malloc+0x938>
  4011cc:	2c 06 10 00 
  4011d0:	43 00 00 00 	addiu $4,$0,4096
  4011d4:	00 10 04 00 
  4011d8:	02 00 00 00 	jal 400f78 <malloc>
  4011dc:	de 03 10 00 
  4011e0:	42 00 00 00 	addu $6,$0,$2
  4011e4:	00 06 02 00 
  4011e8:	05 00 00 00 	beq $6,$0,401788 <malloc+0x810>
  4011ec:	66 01 00 06 
  4011f0:	43 00 00 00 	addiu $4,$0,1
  4011f4:	01 00 04 00 
  4011f8:	43 00 00 00 	addiu $2,$0,4096
  4011fc:	00 10 02 00 
  401200:	5a 00 00 00 	srav $3,$2,$17
  401204:	00 03 02 11 
  401208:	5d 00 00 00 	sltu $2,$4,$3
  40120c:	00 02 03 04 
  401210:	05 00 00 00 	beq $2,$0,4012b0 <malloc+0x338>
  401214:	26 00 00 02 
  401218:	42 00 00 00 	addu $7,$0,$16
  40121c:	00 07 10 00 
  401220:	a2 00 00 00 	lui $2,4096
  401224:	00 10 02 00 
  401228:	43 00 00 00 	addiu $2,$2,1008
  40122c:	f0 03 02 02 
  401230:	42 00 00 00 	addu $5,$7,$2
  401234:	00 05 02 07 
  401238:	42 00 00 00 	addu $8,$0,$3
  40123c:	00 08 03 00 
  401240:	a2 00 00 00 	lui $3,4096
  401244:	00 10 03 00 
  401248:	42 00 00 00 	addu $3,$3,$7
  40124c:	00 03 07 03 
  401250:	28 00 00 00 	lw $3,1008($3)
  401254:	f0 03 03 03 
  401258:	56 00 00 00 	sllv $2,$4,$17
  40125c:	00 02 04 11 
  401260:	42 00 00 00 	addu $2,$6,$2
  401264:	00 02 02 06 
  401268:	34 00 00 00 	sw $3,0($2)
  40126c:	00 00 03 02 
  401270:	34 00 00 00 	sw $5,4($2)
  401274:	04 00 05 02 
  401278:	34 00 00 00 	sw $2,0($5)
  40127c:	00 00 02 05 
  401280:	28 00 00 00 	lw $3,0($2)
  401284:	00 00 03 02 
  401288:	05 00 00 00 	beq $3,$0,401298 <malloc+0x320>
  40128c:	02 00 00 03 
  401290:	34 00 00 00 	sw $2,4($3)
  401294:	04 00 02 03 
  401298:	43 00 00 00 	addiu $4,$4,1
  40129c:	01 00 04 04 
  4012a0:	5d 00 00 00 	sltu $2,$4,$8
  4012a4:	00 02 08 04 
  4012a8:	06 00 00 00 	bne $2,$0,401240 <malloc+0x2c8>
  4012ac:	e4 ff 00 02 
  4012b0:	28 00 00 00 	lw $2,-32524($28)
  4012b4:	f4 80 02 1c 
  4012b8:	45 00 00 00 	subu $2,$6,$2
  4012bc:	00 02 02 06 
  4012c0:	0a 00 00 00 	bgez $2,4012d0 <malloc+0x358>
  4012c4:	02 00 00 02 
  4012c8:	43 00 00 00 	addiu $2,$2,4095
  4012cc:	ff 0f 02 02 
  4012d0:	59 00 00 00 	sra $2,$2,0xc
  4012d4:	0c 02 02 00 
  4012d8:	43 00 00 00 	addiu $7,$2,1
  4012dc:	01 00 07 02 
  4012e0:	28 00 00 00 	lw $3,-32536($28)
  4012e4:	e8 80 03 1c 
  4012e8:	55 00 00 00 	sll $2,$7,0x1
  4012ec:	01 02 07 00 
  4012f0:	42 00 00 00 	addu $2,$2,$7
  4012f4:	00 02 07 02 
  4012f8:	28 00 00 00 	lw $5,-32552($28)
  4012fc:	d8 80 05 1c 
  401300:	55 00 00 00 	sll $2,$2,0x2
  401304:	02 02 02 00 
  401308:	42 00 00 00 	addu $2,$2,$3
  40130c:	00 02 03 02 
  401310:	43 00 00 00 	addiu $3,$4,-1
  401314:	ff ff 03 04 
  401318:	43 00 00 00 	addiu $5,$5,-1
  40131c:	ff ff 05 05 
  401320:	34 00 00 00 	sw $17,0($2)
  401324:	00 00 11 02 
  401328:	34 00 00 00 	sw $3,4($2)
  40132c:	04 00 03 02 
  401330:	34 00 00 00 	sw $3,8($2)
  401334:	08 00 03 02 
  401338:	43 00 00 00 	addiu $2,$0,4096
  40133c:	00 10 02 00 
  401340:	28 00 00 00 	lw $4,-32528($28)
  401344:	f0 80 04 1c 
  401348:	5a 00 00 00 	srav $2,$2,$17
  40134c:	00 02 02 11 
  401350:	42 00 00 00 	addu $5,$5,$2
  401354:	00 05 02 05 
  401358:	28 00 00 00 	lw $2,-32560($28)
  40135c:	d0 80 02 1c 
  401360:	43 00 00 00 	addiu $3,$0,1
  401364:	01 00 03 00 
  401368:	56 00 00 00 	sllv $3,$3,$17
  40136c:	00 03 03 11 
  401370:	34 00 00 00 	sw $5,-32552($28)
  401374:	d8 80 05 1c 
  401378:	43 00 00 00 	addiu $4,$4,4096
  40137c:	00 10 04 04 
  401380:	45 00 00 00 	subu $4,$4,$3
  401384:	00 04 03 04 
  401388:	43 00 00 00 	addiu $2,$2,-4096
  40138c:	00 f0 02 02 
  401390:	42 00 00 00 	addu $2,$2,$3
  401394:	00 02 03 02 
  401398:	34 00 00 00 	sw $4,-32528($28)
  40139c:	f0 80 04 1c 
  4013a0:	34 00 00 00 	sw $2,-32560($28)
  4013a4:	d0 80 02 1c 
  4013a8:	01 00 00 00 	j 4018b0 <malloc+0x938>
  4013ac:	2c 06 10 00 
  4013b0:	28 00 00 00 	lw $7,-32548($28)
  4013b4:	dc 80 07 1c 
  4013b8:	28 00 00 00 	lw $5,-32536($28)
  4013bc:	e8 80 05 1c 
  4013c0:	43 00 00 00 	addiu $2,$16,4095
  4013c4:	ff 0f 02 10 
  4013c8:	55 00 00 00 	sll $4,$7,0x1
  4013cc:	01 04 07 00 
  4013d0:	42 00 00 00 	addu $3,$4,$7
  4013d4:	00 03 07 04 
  4013d8:	55 00 00 00 	sll $3,$3,0x2
  4013dc:	02 03 03 00 
  4013e0:	42 00 00 00 	addu $3,$3,$5
  4013e4:	00 03 05 03 
  4013e8:	28 00 00 00 	lw $3,0($3)
  4013ec:	00 00 03 03 
  4013f0:	57 00 00 00 	srl $18,$2,0xc
  4013f4:	0c 12 02 00 
  4013f8:	42 00 00 00 	addu $20,$0,$7
  4013fc:	00 14 07 00 
  401400:	5d 00 00 00 	sltu $3,$3,$18
  401404:	00 03 12 03 
  401408:	05 00 00 00 	beq $3,$0,401668 <malloc+0x6f0>
  40140c:	96 00 00 03 
  401410:	55 00 00 00 	sll $19,$18,0xc
  401414:	0c 13 12 00 
  401418:	42 00 00 00 	addu $2,$4,$7
  40141c:	00 02 07 04 
  401420:	55 00 00 00 	sll $2,$2,0x2
  401424:	02 02 02 00 
  401428:	42 00 00 00 	addu $2,$2,$5
  40142c:	00 02 05 02 
  401430:	28 00 00 00 	lw $7,4($2)
  401434:	04 00 07 02 
  401438:	06 00 00 00 	bne $7,$20,401628 <malloc+0x6b0>
  40143c:	7a 00 14 07 
  401440:	28 00 00 00 	lw $7,8($5)
  401444:	08 00 07 05 
  401448:	28 00 00 00 	lw $3,-32544($28)
  40144c:	e0 80 03 1c 
  401450:	55 00 00 00 	sll $2,$7,0x1
  401454:	01 02 07 00 
  401458:	42 00 00 00 	addu $2,$2,$7
  40145c:	00 02 07 02 
  401460:	55 00 00 00 	sll $2,$2,0x2
  401464:	02 02 02 00 
  401468:	42 00 00 00 	addu $2,$2,$5
  40146c:	00 02 05 02 
  401470:	28 00 00 00 	lw $17,0($2)
  401474:	00 00 11 02 
  401478:	05 00 00 00 	beq $3,$0,401560 <malloc+0x5e8>
  40147c:	38 00 00 03 
  401480:	42 00 00 00 	addu $16,$7,$17
  401484:	00 10 11 07 
  401488:	06 00 00 00 	bne $16,$3,401560 <malloc+0x5e8>
  40148c:	34 00 03 10 
  401490:	28 00 00 00 	lw $2,-32688($28)
  401494:	50 80 02 1c 
  401498:	42 00 00 00 	addu $4,$0,$0
  40149c:	00 04 00 00 
  4014a0:	04 00 00 00 	jalr $31,$2
  4014a4:	00 1f 00 02 
  4014a8:	28 00 00 00 	lw $4,-32524($28)
  4014ac:	f4 80 04 1c 
  4014b0:	43 00 00 00 	addiu $3,$16,-1
  4014b4:	ff ff 03 10 
  4014b8:	55 00 00 00 	sll $3,$3,0xc
  4014bc:	0c 03 03 00 
  4014c0:	42 00 00 00 	addu $3,$3,$4
  4014c4:	00 03 04 03 
  4014c8:	06 00 00 00 	bne $2,$3,401560 <malloc+0x5e8>
  4014cc:	24 00 03 02 
  4014d0:	45 00 00 00 	subu $17,$18,$17
  4014d4:	00 11 11 12 
  4014d8:	55 00 00 00 	sll $16,$17,0xc
  4014dc:	0c 10 11 00 
  4014e0:	42 00 00 00 	addu $4,$0,$16
  4014e4:	00 04 10 00 
  4014e8:	02 00 00 00 	jal 400b58 <morecore>
  4014ec:	d6 02 10 00 
  4014f0:	05 00 00 00 	beq $2,$0,401560 <malloc+0x5e8>
  4014f4:	1a 00 00 02 
  4014f8:	28 00 00 00 	lw $3,-32536($28)
  4014fc:	e8 80 03 1c 
  401500:	28 00 00 00 	lw $7,8($3)
  401504:	08 00 07 03 
  401508:	55 00 00 00 	sll $2,$7,0x1
  40150c:	01 02 07 00 
  401510:	42 00 00 00 	addu $2,$2,$7
  401514:	00 02 07 02 
  401518:	55 00 00 00 	sll $2,$2,0x2
  40151c:	02 02 02 00 
  401520:	42 00 00 00 	addu $2,$2,$3
  401524:	00 02 03 02 
  401528:	28 00 00 00 	lw $3,-32528($28)
  40152c:	f0 80 03 1c 
  401530:	28 00 00 00 	lw $4,0($2)
  401534:	00 00 04 02 
  401538:	42 00 00 00 	addu $3,$16,$3
  40153c:	00 03 03 10 
  401540:	42 00 00 00 	addu $4,$17,$4
  401544:	00 04 04 11 
  401548:	34 00 00 00 	sw $3,-32528($28)
  40154c:	f0 80 03 1c 
  401550:	34 00 00 00 	sw $4,0($2)
  401554:	00 00 04 02 
  401558:	01 00 00 00 	j 401628 <malloc+0x6b0>
  40155c:	8a 05 10 00 
  401560:	42 00 00 00 	addu $4,$0,$19
  401564:	00 04 13 00 
  401568:	02 00 00 00 	jal 400b58 <morecore>
  40156c:	d6 02 10 00 
  401570:	42 00 00 00 	addu $6,$0,$2
  401574:	00 06 02 00 
  401578:	05 00 00 00 	beq $6,$0,401788 <malloc+0x810>
  40157c:	82 00 00 06 
  401580:	28 00 00 00 	lw $2,-32524($28)
  401584:	f4 80 02 1c 
  401588:	45 00 00 00 	subu $2,$6,$2
  40158c:	00 02 02 06 
  401590:	0a 00 00 00 	bgez $2,4015a0 <malloc+0x628>
  401594:	02 00 00 02 
  401598:	43 00 00 00 	addiu $2,$2,4095
  40159c:	ff 0f 02 02 
  4015a0:	59 00 00 00 	sra $2,$2,0xc
  4015a4:	0c 02 02 00 
  4015a8:	43 00 00 00 	addiu $7,$2,1
  4015ac:	01 00 07 02 
  4015b0:	42 00 00 00 	addu $2,$0,$6
  4015b4:	00 02 06 00 
  4015b8:	28 00 00 00 	lw $6,-32536($28)
  4015bc:	e8 80 06 1c 
  4015c0:	55 00 00 00 	sll $3,$7,0x1
  4015c4:	01 03 07 00 
  4015c8:	42 00 00 00 	addu $3,$3,$7
  4015cc:	00 03 07 03 
  4015d0:	28 00 00 00 	lw $4,-32520($28)
  4015d4:	f8 80 04 1c 
  4015d8:	28 00 00 00 	lw $5,-32560($28)
  4015dc:	d0 80 05 1c 
  4015e0:	55 00 00 00 	sll $3,$3,0x2
  4015e4:	02 03 03 00 
  4015e8:	42 00 00 00 	addu $3,$3,$6
  4015ec:	00 03 06 03 
  4015f0:	43 00 00 00 	addiu $4,$4,1
  4015f4:	01 00 04 04 
  4015f8:	42 00 00 00 	addu $5,$19,$5
  4015fc:	00 05 05 13 
  401600:	34 00 00 00 	sw $0,0($3)
  401604:	00 00 00 03 
  401608:	34 00 00 00 	sw $18,4($3)
  40160c:	04 00 12 03 
  401610:	34 00 00 00 	sw $4,-32520($28)
  401614:	f8 80 04 1c 
  401618:	34 00 00 00 	sw $5,-32560($28)
  40161c:	d0 80 05 1c 
  401620:	01 00 00 00 	j 4018b8 <malloc+0x940>
  401624:	2e 06 10 00 
  401628:	28 00 00 00 	lw $5,-32536($28)
  40162c:	e8 80 05 1c 
  401630:	55 00 00 00 	sll $4,$7,0x1
  401634:	01 04 07 00 
  401638:	42 00 00 00 	addu $2,$4,$7
  40163c:	00 02 07 04 
  401640:	55 00 00 00 	sll $2,$2,0x2
  401644:	02 02 02 00 
  401648:	42 00 00 00 	addu $2,$2,$5
  40164c:	00 02 05 02 
  401650:	28 00 00 00 	lw $2,0($2)
  401654:	00 00 02 02 
  401658:	5d 00 00 00 	sltu $2,$2,$18
  40165c:	00 02 12 02 
  401660:	06 00 00 00 	bne $2,$0,401418 <malloc+0x4a0>
  401664:	6c ff 00 02 
  401668:	43 00 00 00 	addiu $3,$7,-1
  40166c:	ff ff 03 07 
  401670:	28 00 00 00 	lw $4,-32524($28)
  401674:	f4 80 04 1c 
  401678:	28 00 00 00 	lw $8,-32536($28)
  40167c:	e8 80 08 1c 
  401680:	55 00 00 00 	sll $2,$7,0x1
  401684:	01 02 07 00 
  401688:	42 00 00 00 	addu $2,$2,$7
  40168c:	00 02 07 02 
  401690:	55 00 00 00 	sll $2,$2,0x2
  401694:	02 02 02 00 
  401698:	42 00 00 00 	addu $5,$2,$8
  40169c:	00 05 08 02 
  4016a0:	28 00 00 00 	lw $9,0($5)
  4016a4:	00 00 09 05 
  4016a8:	55 00 00 00 	sll $3,$3,0xc
  4016ac:	0c 03 03 00 
  4016b0:	42 00 00 00 	addu $6,$3,$4
  4016b4:	00 06 04 03 
  4016b8:	5d 00 00 00 	sltu $2,$18,$9
  4016bc:	00 02 09 12 
  4016c0:	05 00 00 00 	beq $2,$0,401798 <malloc+0x820>
  4016c4:	34 00 00 02 
  4016c8:	42 00 00 00 	addu $4,$7,$18
  4016cc:	00 04 12 07 
  4016d0:	55 00 00 00 	sll $2,$4,0x1
  4016d4:	01 02 04 00 
  4016d8:	42 00 00 00 	addu $2,$2,$4
  4016dc:	00 02 04 02 
  4016e0:	55 00 00 00 	sll $2,$2,0x2
  4016e4:	02 02 02 00 
  4016e8:	42 00 00 00 	addu $2,$2,$8
  4016ec:	00 02 08 02 
  4016f0:	45 00 00 00 	subu $3,$9,$18
  4016f4:	00 03 12 09 
  4016f8:	34 00 00 00 	sw $3,0($2)
  4016fc:	00 00 03 02 
  401700:	28 00 00 00 	lw $3,4($5)
  401704:	04 00 03 05 
  401708:	34 00 00 00 	sw $3,4($2)
  40170c:	04 00 03 02 
  401710:	28 00 00 00 	lw $3,8($5)
  401714:	08 00 03 05 
  401718:	34 00 00 00 	sw $3,8($2)
  40171c:	08 00 03 02 
  401720:	28 00 00 00 	lw $3,4($5)
  401724:	04 00 03 05 
  401728:	34 00 00 00 	sw $4,-32548($28)
  40172c:	dc 80 04 1c 
  401730:	28 00 00 00 	lw $5,8($5)
  401734:	08 00 05 05 
  401738:	55 00 00 00 	sll $2,$3,0x1
  40173c:	01 02 03 00 
  401740:	42 00 00 00 	addu $2,$2,$3
  401744:	00 02 03 02 
  401748:	55 00 00 00 	sll $2,$2,0x2
  40174c:	02 02 02 00 
  401750:	42 00 00 00 	addu $2,$2,$8
  401754:	00 02 08 02 
  401758:	34 00 00 00 	sw $4,8($2)
  40175c:	08 00 04 02 
  401760:	55 00 00 00 	sll $2,$5,0x1
  401764:	01 02 05 00 
  401768:	42 00 00 00 	addu $2,$2,$5
  40176c:	00 02 05 02 
  401770:	55 00 00 00 	sll $2,$2,0x2
  401774:	02 02 02 00 
  401778:	42 00 00 00 	addu $2,$2,$8
  40177c:	00 02 08 02 
  401780:	01 00 00 00 	j 401820 <malloc+0x8a8>
  401784:	08 06 10 00 
  401788:	42 00 00 00 	addu $2,$0,$0
  40178c:	00 02 00 00 
  401790:	01 00 00 00 	j 4018b8 <malloc+0x940>
  401794:	2e 06 10 00 
  401798:	28 00 00 00 	lw $3,4($5)
  40179c:	04 00 03 05 
  4017a0:	55 00 00 00 	sll $2,$3,0x1
  4017a4:	01 02 03 00 
  4017a8:	42 00 00 00 	addu $2,$2,$3
  4017ac:	00 02 03 02 
  4017b0:	28 00 00 00 	lw $3,8($5)
  4017b4:	08 00 03 05 
  4017b8:	55 00 00 00 	sll $2,$2,0x2
  4017bc:	02 02 02 00 
  4017c0:	42 00 00 00 	addu $2,$2,$8
  4017c4:	00 02 08 02 
  4017c8:	34 00 00 00 	sw $3,8($2)
  4017cc:	08 00 03 02 
  4017d0:	28 00 00 00 	lw $3,8($5)
  4017d4:	08 00 03 05 
  4017d8:	28 00 00 00 	lw $2,-32552($28)
  4017dc:	d8 80 02 1c 
  4017e0:	28 00 00 00 	lw $4,4($5)
  4017e4:	04 00 04 05 
  4017e8:	43 00 00 00 	addiu $2,$2,-1
  4017ec:	ff ff 02 02 
  4017f0:	34 00 00 00 	sw $2,-32552($28)
  4017f4:	d8 80 02 1c 
  4017f8:	55 00 00 00 	sll $2,$3,0x1
  4017fc:	01 02 03 00 
  401800:	42 00 00 00 	addu $2,$2,$3
  401804:	00 02 03 02 
  401808:	55 00 00 00 	sll $2,$2,0x2
  40180c:	02 02 02 00 
  401810:	42 00 00 00 	addu $2,$2,$8
  401814:	00 02 08 02 
  401818:	34 00 00 00 	sw $4,-32548($28)
  40181c:	dc 80 04 1c 
  401820:	34 00 00 00 	sw $4,4($2)
  401824:	04 00 04 02 
  401828:	28 00 00 00 	lw $4,-32536($28)
  40182c:	e8 80 04 1c 
  401830:	55 00 00 00 	sll $2,$7,0x1
  401834:	01 02 07 00 
  401838:	42 00 00 00 	addu $2,$2,$7
  40183c:	00 02 07 02 
  401840:	28 00 00 00 	lw $3,-32520($28)
  401844:	f8 80 03 1c 
  401848:	55 00 00 00 	sll $2,$2,0x2
  40184c:	02 02 02 00 
  401850:	42 00 00 00 	addu $2,$2,$4
  401854:	00 02 04 02 
  401858:	34 00 00 00 	sw $0,0($2)
  40185c:	00 00 00 02 
  401860:	34 00 00 00 	sw $18,4($2)
  401864:	04 00 12 02 
  401868:	28 00 00 00 	lw $2,-32560($28)
  40186c:	d0 80 02 1c 
  401870:	43 00 00 00 	addiu $3,$3,1
  401874:	01 00 03 03 
  401878:	34 00 00 00 	sw $3,-32520($28)
  40187c:	f8 80 03 1c 
  401880:	28 00 00 00 	lw $3,-32528($28)
  401884:	f0 80 03 1c 
  401888:	55 00 00 00 	sll $4,$18,0xc
  40188c:	0c 04 12 00 
  401890:	42 00 00 00 	addu $2,$4,$2
  401894:	00 02 02 04 
  401898:	45 00 00 00 	subu $3,$3,$4
  40189c:	00 03 04 03 
  4018a0:	34 00 00 00 	sw $2,-32560($28)
  4018a4:	d0 80 02 1c 
  4018a8:	34 00 00 00 	sw $3,-32528($28)
  4018ac:	f0 80 03 1c 
  4018b0:	42 00 00 00 	addu $2,$0,$6
  4018b4:	00 02 06 00 
  4018b8:	28 00 00 00 	lw $31,36($29)
  4018bc:	24 00 1f 1d 
  4018c0:	28 00 00 00 	lw $20,32($29)
  4018c4:	20 00 14 1d 
  4018c8:	28 00 00 00 	lw $19,28($29)
  4018cc:	1c 00 13 1d 
  4018d0:	28 00 00 00 	lw $18,24($29)
  4018d4:	18 00 12 1d 
  4018d8:	28 00 00 00 	lw $17,20($29)
  4018dc:	14 00 11 1d 
  4018e0:	28 00 00 00 	lw $16,16($29)
  4018e4:	10 00 10 1d 
  4018e8:	43 00 00 00 	addiu $29,$29,40
  4018ec:	28 00 1d 1d 
  4018f0:	03 00 00 00 	jr $31
  4018f4:	00 00 00 1f 
	...

00401900 <strrchr>:
  401900:	43 00 00 00 	addiu $29,$29,-32
  401904:	e0 ff 1d 1d 
  401908:	34 00 00 00 	sw $17,20($29)
  40190c:	14 00 11 1d 
  401910:	4f 00 00 00 	andi $17,$5,255
  401914:	ff 00 11 05 
  401918:	34 00 00 00 	sw $31,24($29)
  40191c:	18 00 1f 1d 
  401920:	34 00 00 00 	sw $16,16($29)
  401924:	10 00 10 1d 
  401928:	06 00 00 00 	bne $17,$0,401948 <strrchr+0x48>
  40192c:	06 00 00 11 
  401930:	42 00 00 00 	addu $5,$0,$0
  401934:	00 05 00 00 
  401938:	02 00 00 00 	jal 402920 <strchr>
  40193c:	48 0a 10 00 
  401940:	01 00 00 00 	j 401988 <strrchr+0x88>
  401944:	62 06 10 00 
  401948:	42 00 00 00 	addu $16,$0,$0
  40194c:	00 10 00 00 
  401950:	42 00 00 00 	addu $5,$0,$17
  401954:	00 05 11 00 
  401958:	02 00 00 00 	jal 402920 <strchr>
  40195c:	48 0a 10 00 
  401960:	05 00 00 00 	beq $2,$0,401980 <strrchr+0x80>
  401964:	06 00 00 02 
  401968:	42 00 00 00 	addu $16,$0,$2
  40196c:	00 10 02 00 
  401970:	43 00 00 00 	addiu $4,$16,1
  401974:	01 00 04 10 
  401978:	01 00 00 00 	j 401950 <strrchr+0x50>
  40197c:	54 06 10 00 
  401980:	42 00 00 00 	addu $2,$0,$16
  401984:	00 02 10 00 
  401988:	28 00 00 00 	lw $31,24($29)
  40198c:	18 00 1f 1d 
  401990:	28 00 00 00 	lw $17,20($29)
  401994:	14 00 11 1d 
  401998:	28 00 00 00 	lw $16,16($29)
  40199c:	10 00 10 1d 
  4019a0:	43 00 00 00 	addiu $29,$29,32
  4019a4:	20 00 1d 1d 
  4019a8:	03 00 00 00 	jr $31
  4019ac:	00 00 00 1f 

004019b0 <fclose>:
  4019b0:	43 00 00 00 	addiu $29,$29,-32
  4019b4:	e0 ff 1d 1d 
  4019b8:	34 00 00 00 	sw $16,16($29)
  4019bc:	10 00 10 1d 
  4019c0:	42 00 00 00 	addu $16,$0,$4
  4019c4:	00 10 04 00 
  4019c8:	34 00 00 00 	sw $31,28($29)
  4019cc:	1c 00 1f 1d 
  4019d0:	34 00 00 00 	sw $18,24($29)
  4019d4:	18 00 12 1d 
  4019d8:	34 00 00 00 	sw $17,20($29)
  4019dc:	14 00 11 1d 
  4019e0:	06 00 00 00 	bne $16,$0,401a78 <fclose+0xc8>
  4019e4:	24 00 00 10 
  4019e8:	28 00 00 00 	lw $16,-32692($28)
  4019ec:	4c 80 10 1c 
  4019f0:	05 00 00 00 	beq $16,$0,401a68 <fclose+0xb8>
  4019f4:	1c 00 00 10 
  4019f8:	a2 00 00 00 	lui $18,65261
  4019fc:	ed fe 12 00 
  401a00:	51 00 00 00 	ori $18,$18,47806
  401a04:	be ba 12 12 
  401a08:	a2 00 00 00 	lui $17,65242
  401a0c:	da fe 11 00 
  401a10:	51 00 00 00 	ori $17,$17,48875
  401a14:	eb be 11 11 
  401a18:	28 00 00 00 	lw $2,0($16)
  401a1c:	00 00 02 10 
  401a20:	06 00 00 00 	bne $2,$18,401a38 <fclose+0x88>
  401a24:	04 00 12 02 
  401a28:	28 00 00 00 	lw $2,4($16)
  401a2c:	04 00 02 10 
  401a30:	28 00 00 00 	lw $16,0($2)
  401a34:	00 00 10 02 
  401a38:	28 00 00 00 	lw $2,0($16)
  401a3c:	00 00 02 10 
  401a40:	06 00 00 00 	bne $2,$17,401a58 <fclose+0xa8>
  401a44:	04 00 11 02 
  401a48:	42 00 00 00 	addu $4,$0,$16
  401a4c:	00 04 10 00 
  401a50:	02 00 00 00 	jal 4019b0 <fclose>
  401a54:	6c 06 10 00 
  401a58:	28 00 00 00 	lw $16,68($16)
  401a5c:	44 00 10 10 
  401a60:	06 00 00 00 	bne $16,$0,401a18 <fclose+0x68>
  401a64:	ec ff 00 10 
  401a68:	42 00 00 00 	addu $2,$0,$0
  401a6c:	00 02 00 00 
  401a70:	01 00 00 00 	j 401bf8 <fclose+0x248>
  401a74:	fe 06 10 00 
  401a78:	28 00 00 00 	lw $3,0($16)
  401a7c:	00 00 03 10 
  401a80:	a2 00 00 00 	lui $2,65261
  401a84:	ed fe 02 00 
  401a88:	51 00 00 00 	ori $2,$2,47806
  401a8c:	be ba 02 02 
  401a90:	06 00 00 00 	bne $3,$2,401aa8 <fclose+0xf8>
  401a94:	04 00 02 03 
  401a98:	28 00 00 00 	lw $2,4($16)
  401a9c:	04 00 02 10 
  401aa0:	28 00 00 00 	lw $16,0($2)
  401aa4:	00 00 10 02 
  401aa8:	28 00 00 00 	lw $3,0($16)
  401aac:	00 00 03 10 
  401ab0:	a2 00 00 00 	lui $2,65242
  401ab4:	da fe 02 00 
  401ab8:	51 00 00 00 	ori $2,$2,48875
  401abc:	eb be 02 02 
  401ac0:	05 00 00 00 	beq $3,$2,401ae8 <fclose+0x138>
  401ac4:	08 00 02 03 
  401ac8:	43 00 00 00 	addiu $2,$0,22
  401acc:	16 00 02 00 
  401ad0:	34 00 00 00 	sw $2,-32592($28)
  401ad4:	b0 80 02 1c 
  401ad8:	43 00 00 00 	addiu $2,$0,-1
  401adc:	ff ff 02 00 
  401ae0:	01 00 00 00 	j 401bf8 <fclose+0x248>
  401ae4:	fe 06 10 00 
  401ae8:	28 00 00 00 	lw $2,28($16)
  401aec:	1c 00 02 10 
  401af0:	4f 00 00 00 	andi $2,$2,2
  401af4:	02 00 02 02 
  401af8:	05 00 00 00 	beq $2,$0,401b38 <fclose+0x188>
  401afc:	0e 00 00 02 
  401b00:	42 00 00 00 	addu $4,$0,$16
  401b04:	00 04 10 00 
  401b08:	43 00 00 00 	addiu $5,$0,-1
  401b0c:	ff ff 05 00 
  401b10:	02 00 00 00 	jal 403b00 <__flshfp>
  401b14:	c0 0e 10 00 
  401b18:	43 00 00 00 	addiu $3,$0,-1
  401b1c:	ff ff 03 00 
  401b20:	06 00 00 00 	bne $2,$3,401b38 <fclose+0x188>
  401b24:	04 00 03 02 
  401b28:	43 00 00 00 	addiu $2,$0,-1
  401b2c:	ff ff 02 00 
  401b30:	01 00 00 00 	j 401bf8 <fclose+0x248>
  401b34:	fe 06 10 00 
  401b38:	28 00 00 00 	lw $4,16($16)
  401b3c:	10 00 04 10 
  401b40:	05 00 00 00 	beq $4,$0,401b68 <fclose+0x1b8>
  401b44:	08 00 00 04 
  401b48:	28 00 00 00 	lw $2,76($16)
  401b4c:	4c 00 02 10 
  401b50:	4f 00 00 00 	andi $2,$2,2048
  401b54:	00 08 02 02 
  401b58:	06 00 00 00 	bne $2,$0,401b68 <fclose+0x1b8>
  401b5c:	02 00 00 02 
  401b60:	02 00 00 00 	jal 402880 <free>
  401b64:	20 0a 10 00 
  401b68:	28 00 00 00 	lw $2,44($16)
  401b6c:	2c 00 02 10 
  401b70:	05 00 00 00 	beq $2,$0,401b98 <fclose+0x1e8>
  401b74:	08 00 00 02 
  401b78:	28 00 00 00 	lw $4,24($16)
  401b7c:	18 00 04 10 
  401b80:	04 00 00 00 	jalr $31,$2
  401b84:	00 1f 00 02 
  401b88:	42 00 00 00 	addu $17,$0,$2
  401b8c:	00 11 02 00 
  401b90:	01 00 00 00 	j 401be0 <fclose+0x230>
  401b94:	f8 06 10 00 
  401b98:	28 00 00 00 	lw $2,76($16)
  401b9c:	4c 00 02 10 
  401ba0:	4f 00 00 00 	andi $2,$2,16384
  401ba4:	00 40 02 02 
  401ba8:	06 00 00 00 	bne $2,$0,401bd8 <fclose+0x228>
  401bac:	0a 00 00 02 
  401bb0:	28 00 00 00 	lw $4,24($16)
  401bb4:	18 00 04 10 
  401bb8:	05 00 00 00 	beq $4,$0,401bd8 <fclose+0x228>
  401bbc:	06 00 00 04 
  401bc0:	02 00 00 00 	jal 4047e0 <__stdio_close>
  401bc4:	f8 11 10 00 
  401bc8:	42 00 00 00 	addu $17,$0,$2
  401bcc:	00 11 02 00 
  401bd0:	01 00 00 00 	j 401be0 <fclose+0x230>
  401bd4:	f8 06 10 00 
  401bd8:	42 00 00 00 	addu $17,$0,$0
  401bdc:	00 11 00 00 
  401be0:	42 00 00 00 	addu $4,$0,$16
  401be4:	00 04 10 00 
  401be8:	02 00 00 00 	jal 4045c8 <__invalidate>
  401bec:	72 11 10 00 
  401bf0:	59 00 00 00 	sra $2,$17,0x1f
  401bf4:	1f 02 11 00 
  401bf8:	28 00 00 00 	lw $31,28($29)
  401bfc:	1c 00 1f 1d 
  401c00:	28 00 00 00 	lw $18,24($29)
  401c04:	18 00 12 1d 
  401c08:	28 00 00 00 	lw $17,20($29)
  401c0c:	14 00 11 1d 
  401c10:	28 00 00 00 	lw $16,16($29)
  401c14:	10 00 10 1d 
  401c18:	43 00 00 00 	addiu $29,$29,32
  401c1c:	20 00 1d 1d 
  401c20:	03 00 00 00 	jr $31
  401c24:	00 00 00 1f 
	...

00401c30 <syscall_error>:
  401c30:	a2 00 00 00 	lui $1,4096
  401c34:	00 10 01 00 
  401c38:	34 00 00 00 	sw $2,912($1)
  401c3c:	90 03 02 01 
  401c40:	43 00 00 00 	addiu $2,$0,-1
  401c44:	ff ff 02 00 
  401c48:	03 00 00 00 	jr $31
  401c4c:	00 00 00 1f 

00401c50 <__default_morecore>:
  401c50:	43 00 00 00 	addiu $29,$29,-24
  401c54:	e8 ff 1d 1d 
  401c58:	34 00 00 00 	sw $31,16($29)
  401c5c:	10 00 1f 1d 
  401c60:	02 00 00 00 	jal 404c80 <__sbrk>
  401c64:	20 13 10 00 
  401c68:	54 00 00 00 	nor $3,$0,$2
  401c6c:	00 03 02 00 
  401c70:	5d 00 00 00 	sltu $3,$0,$3
  401c74:	00 03 03 00 
  401c78:	45 00 00 00 	subu $3,$0,$3
  401c7c:	00 03 03 00 
  401c80:	4e 00 00 00 	and $2,$2,$3
  401c84:	00 02 03 02 
  401c88:	28 00 00 00 	lw $31,16($29)
  401c8c:	10 00 1f 1d 
  401c90:	43 00 00 00 	addiu $29,$29,24
  401c94:	18 00 1d 1d 
  401c98:	03 00 00 00 	jr $31
  401c9c:	00 00 00 1f 

00401ca0 <memset>:
  401ca0:	42 00 00 00 	addu $8,$0,$4
  401ca4:	00 08 04 00 
  401ca8:	5e 00 00 00 	sltiu $2,$6,8
  401cac:	08 00 02 06 
  401cb0:	06 00 00 00 	bne $2,$0,401dd0 <memset+0x130>
  401cb4:	46 00 00 02 
  401cb8:	4f 00 00 00 	andi $7,$5,255
  401cbc:	ff 00 07 05 
  401cc0:	55 00 00 00 	sll $2,$7,0x8
  401cc4:	08 02 07 00 
  401cc8:	50 00 00 00 	or $7,$7,$2
  401ccc:	00 07 02 07 
  401cd0:	55 00 00 00 	sll $2,$7,0x10
  401cd4:	10 02 07 00 
  401cd8:	50 00 00 00 	or $7,$7,$2
  401cdc:	00 07 02 07 
  401ce0:	4f 00 00 00 	andi $2,$4,3
  401ce4:	03 00 02 04 
  401ce8:	05 00 00 00 	beq $2,$0,401d18 <memset+0x78>
  401cec:	0a 00 00 02 
  401cf0:	30 00 00 00 	sb $5,0($8)
  401cf4:	00 00 05 08 
  401cf8:	43 00 00 00 	addiu $8,$8,1
  401cfc:	01 00 08 08 
  401d00:	43 00 00 00 	addiu $6,$6,-1
  401d04:	ff ff 06 06 
  401d08:	4f 00 00 00 	andi $2,$8,3
  401d0c:	03 00 02 08 
  401d10:	06 00 00 00 	bne $2,$0,401cf0 <memset+0x50>
  401d14:	f6 ff 00 02 
  401d18:	57 00 00 00 	srl $3,$6,0x5
  401d1c:	05 03 06 00 
  401d20:	05 00 00 00 	beq $3,$0,401d90 <memset+0xf0>
  401d24:	1a 00 00 03 
  401d28:	43 00 00 00 	addiu $2,$8,28
  401d2c:	1c 00 02 08 
  401d30:	34 00 00 00 	sw $7,0($8)
  401d34:	00 00 07 08 
  401d38:	34 00 00 00 	sw $7,-24($2)
  401d3c:	e8 ff 07 02 
  401d40:	34 00 00 00 	sw $7,-20($2)
  401d44:	ec ff 07 02 
  401d48:	34 00 00 00 	sw $7,-16($2)
  401d4c:	f0 ff 07 02 
  401d50:	34 00 00 00 	sw $7,-12($2)
  401d54:	f4 ff 07 02 
  401d58:	34 00 00 00 	sw $7,-8($2)
  401d5c:	f8 ff 07 02 
  401d60:	34 00 00 00 	sw $7,-4($2)
  401d64:	fc ff 07 02 
  401d68:	34 00 00 00 	sw $7,0($2)
  401d6c:	00 00 07 02 
  401d70:	43 00 00 00 	addiu $2,$2,32
  401d74:	20 00 02 02 
  401d78:	43 00 00 00 	addiu $8,$8,32
  401d7c:	20 00 08 08 
  401d80:	43 00 00 00 	addiu $3,$3,-1
  401d84:	ff ff 03 03 
  401d88:	06 00 00 00 	bne $3,$0,401d30 <memset+0x90>
  401d8c:	e8 ff 00 03 
  401d90:	4f 00 00 00 	andi $6,$6,31
  401d94:	1f 00 06 06 
  401d98:	57 00 00 00 	srl $3,$6,0x2
  401d9c:	02 03 06 00 
  401da0:	05 00 00 00 	beq $3,$0,401dc8 <memset+0x128>
  401da4:	08 00 00 03 
  401da8:	34 00 00 00 	sw $7,0($8)
  401dac:	00 00 07 08 
  401db0:	43 00 00 00 	addiu $8,$8,4
  401db4:	04 00 08 08 
  401db8:	43 00 00 00 	addiu $3,$3,-1
  401dbc:	ff ff 03 03 
  401dc0:	06 00 00 00 	bne $3,$0,401da8 <memset+0x108>
  401dc4:	f8 ff 00 03 
  401dc8:	4f 00 00 00 	andi $6,$6,3
  401dcc:	03 00 06 06 
  401dd0:	05 00 00 00 	beq $6,$0,401df8 <memset+0x158>
  401dd4:	08 00 00 06 
  401dd8:	30 00 00 00 	sb $5,0($8)
  401ddc:	00 00 05 08 
  401de0:	43 00 00 00 	addiu $8,$8,1
  401de4:	01 00 08 08 
  401de8:	43 00 00 00 	addiu $6,$6,-1
  401dec:	ff ff 06 06 
  401df0:	06 00 00 00 	bne $6,$0,401dd8 <memset+0x138>
  401df4:	f8 ff 00 06 
  401df8:	42 00 00 00 	addu $2,$0,$4
  401dfc:	00 02 04 00 
  401e00:	03 00 00 00 	jr $31
  401e04:	00 00 00 1f 
	...

00401e10 <memcpy>:
  401e10:	43 00 00 00 	addiu $29,$29,-40
  401e14:	d8 ff 1d 1d 
  401e18:	34 00 00 00 	sw $19,28($29)
  401e1c:	1c 00 13 1d 
  401e20:	42 00 00 00 	addu $19,$0,$4
  401e24:	00 13 04 00 
  401e28:	34 00 00 00 	sw $18,24($29)
  401e2c:	18 00 12 1d 
  401e30:	42 00 00 00 	addu $18,$0,$6
  401e34:	00 12 06 00 
  401e38:	34 00 00 00 	sw $17,20($29)
  401e3c:	14 00 11 1d 
  401e40:	42 00 00 00 	addu $17,$0,$19
  401e44:	00 11 13 00 
  401e48:	34 00 00 00 	sw $16,16($29)
  401e4c:	10 00 10 1d 
  401e50:	42 00 00 00 	addu $16,$0,$5
  401e54:	00 10 05 00 
  401e58:	5e 00 00 00 	sltiu $2,$18,16
  401e5c:	10 00 02 12 
  401e60:	34 00 00 00 	sw $31,32($29)
  401e64:	20 00 1f 1d 
  401e68:	06 00 00 00 	bne $2,$0,401f48 <memcpy+0x138>
  401e6c:	36 00 00 02 
  401e70:	45 00 00 00 	subu $2,$0,$19
  401e74:	00 02 13 00 
  401e78:	4f 00 00 00 	andi $2,$2,3
  401e7c:	03 00 02 02 
  401e80:	45 00 00 00 	subu $18,$18,$2
  401e84:	00 12 02 12 
  401e88:	42 00 00 00 	addu $3,$0,$2
  401e8c:	00 03 02 00 
  401e90:	05 00 00 00 	beq $3,$0,401ec8 <memcpy+0xb8>
  401e94:	0c 00 00 03 
  401e98:	22 00 00 00 	lbu $2,0($16)
  401e9c:	00 00 02 10 
  401ea0:	43 00 00 00 	addiu $3,$3,-1
  401ea4:	ff ff 03 03 
  401ea8:	43 00 00 00 	addiu $16,$16,1
  401eac:	01 00 10 10 
  401eb0:	30 00 00 00 	sb $2,0($17)
  401eb4:	00 00 02 11 
  401eb8:	43 00 00 00 	addiu $17,$17,1
  401ebc:	01 00 11 11 
  401ec0:	06 00 00 00 	bne $3,$0,401e98 <memcpy+0x88>
  401ec4:	f4 ff 00 03 
  401ec8:	4f 00 00 00 	andi $2,$16,3
  401ecc:	03 00 02 10 
  401ed0:	06 00 00 00 	bne $2,$0,401f00 <memcpy+0xf0>
  401ed4:	0a 00 00 02 
  401ed8:	42 00 00 00 	addu $4,$0,$17
  401edc:	00 04 11 00 
  401ee0:	42 00 00 00 	addu $5,$0,$16
  401ee4:	00 05 10 00 
  401ee8:	57 00 00 00 	srl $6,$18,0x2
  401eec:	02 06 12 00 
  401ef0:	02 00 00 00 	jal 404d10 <_wordcopy_fwd_aligned>
  401ef4:	44 13 10 00 
  401ef8:	01 00 00 00 	j 401f20 <memcpy+0x110>
  401efc:	c8 07 10 00 
  401f00:	42 00 00 00 	addu $4,$0,$17
  401f04:	00 04 11 00 
  401f08:	42 00 00 00 	addu $5,$0,$16
  401f0c:	00 05 10 00 
  401f10:	57 00 00 00 	srl $6,$18,0x2
  401f14:	02 06 12 00 
  401f18:	02 00 00 00 	jal 404f20 <_wordcopy_fwd_dest_aligned>
  401f1c:	c8 13 10 00 
  401f20:	43 00 00 00 	addiu $2,$0,-4
  401f24:	fc ff 02 00 
  401f28:	4e 00 00 00 	and $2,$18,$2
  401f2c:	00 02 02 12 
  401f30:	42 00 00 00 	addu $16,$16,$2
  401f34:	00 10 02 10 
  401f38:	42 00 00 00 	addu $17,$17,$2
  401f3c:	00 11 02 11 
  401f40:	4f 00 00 00 	andi $18,$18,3
  401f44:	03 00 12 12 
  401f48:	42 00 00 00 	addu $6,$0,$18
  401f4c:	00 06 12 00 
  401f50:	05 00 00 00 	beq $6,$0,401f88 <memcpy+0x178>
  401f54:	0c 00 00 06 
  401f58:	22 00 00 00 	lbu $2,0($16)
  401f5c:	00 00 02 10 
  401f60:	43 00 00 00 	addiu $6,$6,-1
  401f64:	ff ff 06 06 
  401f68:	43 00 00 00 	addiu $16,$16,1
  401f6c:	01 00 10 10 
  401f70:	30 00 00 00 	sb $2,0($17)
  401f74:	00 00 02 11 
  401f78:	43 00 00 00 	addiu $17,$17,1
  401f7c:	01 00 11 11 
  401f80:	06 00 00 00 	bne $6,$0,401f58 <memcpy+0x148>
  401f84:	f4 ff 00 06 
  401f88:	42 00 00 00 	addu $2,$0,$19
  401f8c:	00 02 13 00 
  401f90:	28 00 00 00 	lw $31,32($29)
  401f94:	20 00 1f 1d 
  401f98:	28 00 00 00 	lw $19,28($29)
  401f9c:	1c 00 13 1d 
  401fa0:	28 00 00 00 	lw $18,24($29)
  401fa4:	18 00 12 1d 
  401fa8:	28 00 00 00 	lw $17,20($29)
  401fac:	14 00 11 1d 
  401fb0:	28 00 00 00 	lw $16,16($29)
  401fb4:	10 00 10 1d 
  401fb8:	43 00 00 00 	addiu $29,$29,40
  401fbc:	28 00 1d 1d 
  401fc0:	03 00 00 00 	jr $31
  401fc4:	00 00 00 1f 
	...

00401fd0 <_free_internal>:
  401fd0:	28 00 00 00 	lw $10,-32524($28)
  401fd4:	f4 80 0a 1c 
  401fd8:	43 00 00 00 	addiu $29,$29,-40
  401fdc:	d8 ff 1d 1d 
  401fe0:	42 00 00 00 	addu $6,$0,$4
  401fe4:	00 06 04 00 
  401fe8:	34 00 00 00 	sw $31,32($29)
  401fec:	20 00 1f 1d 
  401ff0:	34 00 00 00 	sw $19,28($29)
  401ff4:	1c 00 13 1d 
  401ff8:	34 00 00 00 	sw $18,24($29)
  401ffc:	18 00 12 1d 
  402000:	34 00 00 00 	sw $17,20($29)
  402004:	14 00 11 1d 
  402008:	34 00 00 00 	sw $16,16($29)
  40200c:	10 00 10 1d 
  402010:	45 00 00 00 	subu $2,$6,$10
  402014:	00 02 0a 06 
  402018:	0a 00 00 00 	bgez $2,402028 <_free_internal+0x58>
  40201c:	02 00 00 02 
  402020:	43 00 00 00 	addiu $2,$2,4095
  402024:	ff 0f 02 02 
  402028:	59 00 00 00 	sra $5,$2,0xc
  40202c:	0c 05 02 00 
  402030:	43 00 00 00 	addiu $16,$5,1
  402034:	01 00 10 05 
  402038:	28 00 00 00 	lw $7,-32536($28)
  40203c:	e8 80 07 1c 
  402040:	55 00 00 00 	sll $2,$16,0x1
  402044:	01 02 10 00 
  402048:	42 00 00 00 	addu $2,$2,$16
  40204c:	00 02 10 02 
  402050:	55 00 00 00 	sll $11,$2,0x2
  402054:	02 0b 02 00 
  402058:	42 00 00 00 	addu $8,$11,$7
  40205c:	00 08 07 0b 
  402060:	28 00 00 00 	lw $9,0($8)
  402064:	00 00 09 08 
  402068:	06 00 00 00 	bne $9,$0,402540 <_free_internal+0x570>
  40206c:	34 01 00 09 
  402070:	28 00 00 00 	lw $2,-32520($28)
  402074:	f8 80 02 1c 
  402078:	28 00 00 00 	lw $6,-32548($28)
  40207c:	dc 80 06 1c 
  402080:	28 00 00 00 	lw $3,4($8)
  402084:	04 00 03 08 
  402088:	28 00 00 00 	lw $4,-32560($28)
  40208c:	d0 80 04 1c 
  402090:	28 00 00 00 	lw $5,-32528($28)
  402094:	f0 80 05 1c 
  402098:	43 00 00 00 	addiu $2,$2,-1
  40209c:	ff ff 02 02 
  4020a0:	34 00 00 00 	sw $2,-32520($28)
  4020a4:	f8 80 02 1c 
  4020a8:	28 00 00 00 	lw $2,4($8)
  4020ac:	04 00 02 08 
  4020b0:	55 00 00 00 	sll $3,$3,0xc
  4020b4:	0c 03 03 00 
  4020b8:	45 00 00 00 	subu $4,$4,$3
  4020bc:	00 04 03 04 
  4020c0:	34 00 00 00 	sw $4,-32560($28)
  4020c4:	d0 80 04 1c 
  4020c8:	55 00 00 00 	sll $2,$2,0xc
  4020cc:	0c 02 02 00 
  4020d0:	42 00 00 00 	addu $2,$2,$5
  4020d4:	00 02 05 02 
  4020d8:	34 00 00 00 	sw $2,-32528($28)
  4020dc:	f0 80 02 1c 
  4020e0:	5d 00 00 00 	sltu $2,$16,$6
  4020e4:	00 02 06 10 
  4020e8:	05 00 00 00 	beq $2,$0,402138 <_free_internal+0x168>
  4020ec:	12 00 00 02 
  4020f0:	42 00 00 00 	addu $3,$0,$7
  4020f4:	00 03 07 00 
  4020f8:	55 00 00 00 	sll $2,$6,0x1
  4020fc:	01 02 06 00 
  402100:	42 00 00 00 	addu $2,$2,$6
  402104:	00 02 06 02 
  402108:	55 00 00 00 	sll $2,$2,0x2
  40210c:	02 02 02 00 
  402110:	42 00 00 00 	addu $2,$2,$3
  402114:	00 02 03 02 
  402118:	28 00 00 00 	lw $6,8($2)
  40211c:	08 00 06 02 
  402120:	5d 00 00 00 	sltu $2,$16,$6
  402124:	00 02 06 10 
  402128:	06 00 00 00 	bne $2,$0,4020f8 <_free_internal+0x128>
  40212c:	f2 ff 00 02 
  402130:	01 00 00 00 	j 4021a8 <_free_internal+0x1d8>
  402134:	6a 08 10 00 
  402138:	42 00 00 00 	addu $3,$0,$7
  40213c:	00 03 07 00 
  402140:	55 00 00 00 	sll $2,$6,0x1
  402144:	01 02 06 00 
  402148:	42 00 00 00 	addu $2,$2,$6
  40214c:	00 02 06 02 
  402150:	55 00 00 00 	sll $2,$2,0x2
  402154:	02 02 02 00 
  402158:	42 00 00 00 	addu $2,$2,$3
  40215c:	00 02 03 02 
  402160:	28 00 00 00 	lw $6,4($2)
  402164:	04 00 06 02 
  402168:	05 00 00 00 	beq $6,$0,402180 <_free_internal+0x1b0>
  40216c:	04 00 00 06 
  402170:	5d 00 00 00 	sltu $2,$6,$16
  402174:	00 02 10 06 
  402178:	06 00 00 00 	bne $2,$0,402140 <_free_internal+0x170>
  40217c:	f0 ff 00 02 
  402180:	55 00 00 00 	sll $2,$6,0x1
  402184:	01 02 06 00 
  402188:	42 00 00 00 	addu $2,$2,$6
  40218c:	00 02 06 02 
  402190:	55 00 00 00 	sll $2,$2,0x2
  402194:	02 02 02 00 
  402198:	42 00 00 00 	addu $2,$2,$3
  40219c:	00 02 03 02 
  4021a0:	28 00 00 00 	lw $6,8($2)
  4021a4:	08 00 06 02 
  4021a8:	28 00 00 00 	lw $5,-32536($28)
  4021ac:	e8 80 05 1c 
  4021b0:	55 00 00 00 	sll $2,$6,0x1
  4021b4:	01 02 06 00 
  4021b8:	42 00 00 00 	addu $2,$2,$6
  4021bc:	00 02 06 02 
  4021c0:	55 00 00 00 	sll $2,$2,0x2
  4021c4:	02 02 02 00 
  4021c8:	42 00 00 00 	addu $4,$2,$5
  4021cc:	00 04 05 02 
  4021d0:	28 00 00 00 	lw $3,0($4)
  4021d4:	00 00 03 04 
  4021d8:	42 00 00 00 	addu $2,$6,$3
  4021dc:	00 02 03 06 
  4021e0:	06 00 00 00 	bne $16,$2,402230 <_free_internal+0x260>
  4021e4:	12 00 02 10 
  4021e8:	55 00 00 00 	sll $2,$16,0x1
  4021ec:	01 02 10 00 
  4021f0:	42 00 00 00 	addu $2,$2,$16
  4021f4:	00 02 10 02 
  4021f8:	55 00 00 00 	sll $2,$2,0x2
  4021fc:	02 02 02 00 
  402200:	42 00 00 00 	addu $2,$2,$5
  402204:	00 02 05 02 
  402208:	28 00 00 00 	lw $2,4($2)
  40220c:	04 00 02 02 
  402210:	42 00 00 00 	addu $16,$0,$6
  402214:	00 10 06 00 
  402218:	42 00 00 00 	addu $2,$3,$2
  40221c:	00 02 02 03 
  402220:	34 00 00 00 	sw $2,0($4)
  402224:	00 00 02 04 
  402228:	01 00 00 00 	j 4022c8 <_free_internal+0x2f8>
  40222c:	b2 08 10 00 
  402230:	55 00 00 00 	sll $2,$16,0x1
  402234:	01 02 10 00 
  402238:	42 00 00 00 	addu $2,$2,$16
  40223c:	00 02 10 02 
  402240:	55 00 00 00 	sll $2,$2,0x2
  402244:	02 02 02 00 
  402248:	42 00 00 00 	addu $2,$2,$5
  40224c:	00 02 05 02 
  402250:	28 00 00 00 	lw $3,4($2)
  402254:	04 00 03 02 
  402258:	34 00 00 00 	sw $3,0($2)
  40225c:	00 00 03 02 
  402260:	28 00 00 00 	lw $3,4($4)
  402264:	04 00 03 04 
  402268:	34 00 00 00 	sw $3,4($2)
  40226c:	04 00 03 02 
  402270:	28 00 00 00 	lw $3,-32552($28)
  402274:	d8 80 03 1c 
  402278:	34 00 00 00 	sw $6,8($2)
  40227c:	08 00 06 02 
  402280:	34 00 00 00 	sw $16,4($4)
  402284:	04 00 10 04 
  402288:	28 00 00 00 	lw $4,4($2)
  40228c:	04 00 04 02 
  402290:	43 00 00 00 	addiu $3,$3,1
  402294:	01 00 03 03 
  402298:	55 00 00 00 	sll $2,$4,0x1
  40229c:	01 02 04 00 
  4022a0:	42 00 00 00 	addu $2,$2,$4
  4022a4:	00 02 04 02 
  4022a8:	55 00 00 00 	sll $2,$2,0x2
  4022ac:	02 02 02 00 
  4022b0:	42 00 00 00 	addu $2,$2,$5
  4022b4:	00 02 05 02 
  4022b8:	34 00 00 00 	sw $3,-32552($28)
  4022bc:	d8 80 03 1c 
  4022c0:	34 00 00 00 	sw $16,8($2)
  4022c4:	08 00 10 02 
  4022c8:	28 00 00 00 	lw $6,-32536($28)
  4022cc:	e8 80 06 1c 
  4022d0:	55 00 00 00 	sll $2,$16,0x1
  4022d4:	01 02 10 00 
  4022d8:	42 00 00 00 	addu $2,$2,$16
  4022dc:	00 02 10 02 
  4022e0:	55 00 00 00 	sll $19,$2,0x2
  4022e4:	02 13 02 00 
  4022e8:	42 00 00 00 	addu $5,$19,$6
  4022ec:	00 05 06 13 
  4022f0:	28 00 00 00 	lw $4,0($5)
  4022f4:	00 00 04 05 
  4022f8:	28 00 00 00 	lw $2,4($5)
  4022fc:	04 00 02 05 
  402300:	42 00 00 00 	addu $3,$16,$4
  402304:	00 03 04 10 
  402308:	06 00 00 00 	bne $3,$2,4023c0 <_free_internal+0x3f0>
  40230c:	2c 00 02 03 
  402310:	55 00 00 00 	sll $2,$3,0x1
  402314:	01 02 03 00 
  402318:	42 00 00 00 	addu $2,$2,$3
  40231c:	00 02 03 02 
  402320:	55 00 00 00 	sll $2,$2,0x2
  402324:	02 02 02 00 
  402328:	42 00 00 00 	addu $2,$2,$6
  40232c:	00 02 06 02 
  402330:	28 00 00 00 	lw $2,0($2)
  402334:	00 00 02 02 
  402338:	28 00 00 00 	lw $3,4($5)
  40233c:	04 00 03 05 
  402340:	42 00 00 00 	addu $2,$4,$2
  402344:	00 02 02 04 
  402348:	34 00 00 00 	sw $2,0($5)
  40234c:	00 00 02 05 
  402350:	55 00 00 00 	sll $2,$3,0x1
  402354:	01 02 03 00 
  402358:	42 00 00 00 	addu $2,$2,$3
  40235c:	00 02 03 02 
  402360:	55 00 00 00 	sll $2,$2,0x2
  402364:	02 02 02 00 
  402368:	42 00 00 00 	addu $2,$2,$6
  40236c:	00 02 06 02 
  402370:	28 00 00 00 	lw $3,-32552($28)
  402374:	d8 80 03 1c 
  402378:	28 00 00 00 	lw $4,4($2)
  40237c:	04 00 04 02 
  402380:	43 00 00 00 	addiu $3,$3,-1
  402384:	ff ff 03 03 
  402388:	55 00 00 00 	sll $2,$4,0x1
  40238c:	01 02 04 00 
  402390:	42 00 00 00 	addu $2,$2,$4
  402394:	00 02 04 02 
  402398:	55 00 00 00 	sll $2,$2,0x2
  40239c:	02 02 02 00 
  4023a0:	42 00 00 00 	addu $2,$2,$6
  4023a4:	00 02 06 02 
  4023a8:	34 00 00 00 	sw $3,-32552($28)
  4023ac:	d8 80 03 1c 
  4023b0:	34 00 00 00 	sw $4,4($5)
  4023b4:	04 00 04 05 
  4023b8:	34 00 00 00 	sw $16,8($2)
  4023bc:	08 00 10 02 
  4023c0:	28 00 00 00 	lw $2,-32536($28)
  4023c4:	e8 80 02 1c 
  4023c8:	42 00 00 00 	addu $2,$19,$2
  4023cc:	00 02 02 13 
  4023d0:	28 00 00 00 	lw $17,0($2)
  4023d4:	00 00 11 02 
  4023d8:	5e 00 00 00 	sltiu $2,$17,8
  4023dc:	08 00 02 11 
  4023e0:	06 00 00 00 	bne $2,$0,402530 <_free_internal+0x560>
  4023e4:	52 00 00 02 
  4023e8:	28 00 00 00 	lw $2,-32544($28)
  4023ec:	e0 80 02 1c 
  4023f0:	42 00 00 00 	addu $18,$16,$17
  4023f4:	00 12 11 10 
  4023f8:	06 00 00 00 	bne $18,$2,402530 <_free_internal+0x560>
  4023fc:	4c 00 02 12 
  402400:	28 00 00 00 	lw $2,-32688($28)
  402404:	50 80 02 1c 
  402408:	42 00 00 00 	addu $4,$0,$0
  40240c:	00 04 00 00 
  402410:	04 00 00 00 	jalr $31,$2
  402414:	00 1f 00 02 
  402418:	28 00 00 00 	lw $4,-32524($28)
  40241c:	f4 80 04 1c 
  402420:	43 00 00 00 	addiu $3,$18,-1
  402424:	ff ff 03 12 
  402428:	55 00 00 00 	sll $3,$3,0xc
  40242c:	0c 03 03 00 
  402430:	42 00 00 00 	addu $3,$3,$4
  402434:	00 03 04 03 
  402438:	06 00 00 00 	bne $2,$3,402530 <_free_internal+0x560>
  40243c:	3c 00 03 02 
  402440:	55 00 00 00 	sll $16,$17,0xc
  402444:	0c 10 11 00 
  402448:	28 00 00 00 	lw $2,-32544($28)
  40244c:	e0 80 02 1c 
  402450:	28 00 00 00 	lw $3,-32688($28)
  402454:	50 80 03 1c 
  402458:	45 00 00 00 	subu $4,$0,$16
  40245c:	00 04 10 00 
  402460:	45 00 00 00 	subu $2,$2,$17
  402464:	00 02 11 02 
  402468:	34 00 00 00 	sw $2,-32544($28)
  40246c:	e0 80 02 1c 
  402470:	04 00 00 00 	jalr $31,$3
  402474:	00 1f 00 03 
  402478:	28 00 00 00 	lw $5,-32536($28)
  40247c:	e8 80 05 1c 
  402480:	42 00 00 00 	addu $4,$19,$5
  402484:	00 04 05 13 
  402488:	28 00 00 00 	lw $3,8($4)
  40248c:	08 00 03 04 
  402490:	55 00 00 00 	sll $2,$3,0x1
  402494:	01 02 03 00 
  402498:	42 00 00 00 	addu $2,$2,$3
  40249c:	00 02 03 02 
  4024a0:	28 00 00 00 	lw $3,4($4)
  4024a4:	04 00 03 04 
  4024a8:	55 00 00 00 	sll $2,$2,0x2
  4024ac:	02 02 02 00 
  4024b0:	42 00 00 00 	addu $2,$2,$5
  4024b4:	00 02 05 02 
  4024b8:	34 00 00 00 	sw $3,4($2)
  4024bc:	04 00 03 02 
  4024c0:	28 00 00 00 	lw $2,-32552($28)
  4024c4:	d8 80 02 1c 
  4024c8:	28 00 00 00 	lw $3,-32528($28)
  4024cc:	f0 80 03 1c 
  4024d0:	28 00 00 00 	lw $6,4($4)
  4024d4:	04 00 06 04 
  4024d8:	43 00 00 00 	addiu $2,$2,-1
  4024dc:	ff ff 02 02 
  4024e0:	45 00 00 00 	subu $3,$3,$16
  4024e4:	00 03 10 03 
  4024e8:	34 00 00 00 	sw $2,-32552($28)
  4024ec:	d8 80 02 1c 
  4024f0:	55 00 00 00 	sll $2,$6,0x1
  4024f4:	01 02 06 00 
  4024f8:	42 00 00 00 	addu $2,$2,$6
  4024fc:	00 02 06 02 
  402500:	34 00 00 00 	sw $3,-32528($28)
  402504:	f0 80 03 1c 
  402508:	28 00 00 00 	lw $3,8($4)
  40250c:	08 00 03 04 
  402510:	55 00 00 00 	sll $2,$2,0x2
  402514:	02 02 02 00 
  402518:	42 00 00 00 	addu $2,$2,$5
  40251c:	00 02 05 02 
  402520:	34 00 00 00 	sw $3,8($2)
  402524:	08 00 03 02 
  402528:	28 00 00 00 	lw $16,8($4)
  40252c:	08 00 10 04 
  402530:	34 00 00 00 	sw $16,-32548($28)
  402534:	dc 80 10 1c 
  402538:	01 00 00 00 	j 402848 <_free_internal+0x878>
  40253c:	12 0a 10 00 
  402540:	28 00 00 00 	lw $4,-32520($28)
  402544:	f8 80 04 1c 
  402548:	28 00 00 00 	lw $3,8($8)
  40254c:	08 00 03 08 
  402550:	55 00 00 00 	sll $2,$5,0xc
  402554:	0c 02 05 00 
  402558:	42 00 00 00 	addu $2,$2,$10
  40255c:	00 02 0a 02 
  402560:	28 00 00 00 	lw $5,-32528($28)
  402564:	f0 80 05 1c 
  402568:	56 00 00 00 	sllv $3,$3,$9
  40256c:	00 03 03 09 
  402570:	42 00 00 00 	addu $7,$2,$3
  402574:	00 07 03 02 
  402578:	28 00 00 00 	lw $3,-32560($28)
  40257c:	d0 80 03 1c 
  402580:	43 00 00 00 	addiu $10,$0,1
  402584:	01 00 0a 00 
  402588:	43 00 00 00 	addiu $4,$4,-1
  40258c:	ff ff 04 04 
  402590:	34 00 00 00 	sw $4,-32520($28)
  402594:	f8 80 04 1c 
  402598:	28 00 00 00 	lw $4,-32552($28)
  40259c:	d8 80 04 1c 
  4025a0:	56 00 00 00 	sllv $2,$10,$9
  4025a4:	00 02 0a 09 
  4025a8:	45 00 00 00 	subu $3,$3,$2
  4025ac:	00 03 02 03 
  4025b0:	34 00 00 00 	sw $3,-32560($28)
  4025b4:	d0 80 03 1c 
  4025b8:	28 00 00 00 	lw $3,4($8)
  4025bc:	04 00 03 08 
  4025c0:	43 00 00 00 	addiu $4,$4,1
  4025c4:	01 00 04 04 
  4025c8:	42 00 00 00 	addu $2,$2,$5
  4025cc:	00 02 05 02 
  4025d0:	34 00 00 00 	sw $2,-32528($28)
  4025d4:	f0 80 02 1c 
  4025d8:	43 00 00 00 	addiu $2,$0,4096
  4025dc:	00 10 02 00 
  4025e0:	34 00 00 00 	sw $4,-32552($28)
  4025e4:	d8 80 04 1c 
  4025e8:	5a 00 00 00 	srav $4,$2,$9
  4025ec:	00 04 02 09 
  4025f0:	43 00 00 00 	addiu $2,$4,-1
  4025f4:	ff ff 02 04 
  4025f8:	06 00 00 00 	bne $3,$2,402748 <_free_internal+0x778>
  4025fc:	52 00 02 03 
  402600:	42 00 00 00 	addu $3,$0,$7
  402604:	00 03 07 00 
  402608:	43 00 00 00 	addiu $6,$0,1
  40260c:	01 00 06 00 
  402610:	5d 00 00 00 	sltu $2,$10,$4
  402614:	00 02 04 0a 
  402618:	05 00 00 00 	beq $2,$0,402640 <_free_internal+0x670>
  40261c:	08 00 00 02 
  402620:	28 00 00 00 	lw $3,0($3)
  402624:	00 00 03 03 
  402628:	43 00 00 00 	addiu $6,$6,1
  40262c:	01 00 06 06 
  402630:	5d 00 00 00 	sltu $2,$6,$4
  402634:	00 02 04 06 
  402638:	06 00 00 00 	bne $2,$0,402620 <_free_internal+0x650>
  40263c:	f8 ff 00 02 
  402640:	28 00 00 00 	lw $2,4($7)
  402644:	04 00 02 07 
  402648:	34 00 00 00 	sw $3,0($2)
  40264c:	00 00 03 02 
  402650:	05 00 00 00 	beq $3,$0,402668 <_free_internal+0x698>
  402654:	04 00 00 03 
  402658:	28 00 00 00 	lw $2,4($7)
  40265c:	04 00 02 07 
  402660:	34 00 00 00 	sw $2,4($3)
  402664:	04 00 02 03 
  402668:	28 00 00 00 	lw $2,-32524($28)
  40266c:	f4 80 02 1c 
  402670:	43 00 00 00 	addiu $4,$16,-1
  402674:	ff ff 04 10 
  402678:	55 00 00 00 	sll $4,$4,0xc
  40267c:	0c 04 04 00 
  402680:	28 00 00 00 	lw $3,-32536($28)
  402684:	e8 80 03 1c 
  402688:	28 00 00 00 	lw $5,-32520($28)
  40268c:	f8 80 05 1c 
  402690:	28 00 00 00 	lw $6,-32560($28)
  402694:	d0 80 06 1c 
  402698:	42 00 00 00 	addu $4,$4,$2
  40269c:	00 04 02 04 
  4026a0:	55 00 00 00 	sll $2,$16,0x1
  4026a4:	01 02 10 00 
  4026a8:	42 00 00 00 	addu $2,$2,$16
  4026ac:	00 02 10 02 
  4026b0:	55 00 00 00 	sll $2,$2,0x2
  4026b4:	02 02 02 00 
  4026b8:	42 00 00 00 	addu $2,$2,$3
  4026bc:	00 02 03 02 
  4026c0:	43 00 00 00 	addiu $3,$0,1
  4026c4:	01 00 03 00 
  4026c8:	34 00 00 00 	sw $3,4($2)
  4026cc:	04 00 03 02 
  4026d0:	28 00 00 00 	lw $3,-32552($28)
  4026d4:	d8 80 03 1c 
  4026d8:	43 00 00 00 	addiu $5,$5,1
  4026dc:	01 00 05 05 
  4026e0:	34 00 00 00 	sw $5,-32520($28)
  4026e4:	f8 80 05 1c 
  4026e8:	28 00 00 00 	lw $5,-32528($28)
  4026ec:	f0 80 05 1c 
  4026f0:	43 00 00 00 	addiu $6,$6,4096
  4026f4:	00 10 06 06 
  4026f8:	34 00 00 00 	sw $0,0($2)
  4026fc:	00 00 00 02 
  402700:	43 00 00 00 	addiu $2,$0,4096
  402704:	00 10 02 00 
  402708:	5a 00 00 00 	srav $2,$2,$9
  40270c:	00 02 02 09 
  402710:	34 00 00 00 	sw $6,-32560($28)
  402714:	d0 80 06 1c 
  402718:	45 00 00 00 	subu $3,$3,$2
  40271c:	00 03 02 03 
  402720:	43 00 00 00 	addiu $5,$5,-4096
  402724:	00 f0 05 05 
  402728:	34 00 00 00 	sw $3,-32552($28)
  40272c:	d8 80 03 1c 
  402730:	34 00 00 00 	sw $5,-32528($28)
  402734:	f0 80 05 1c 
  402738:	02 00 00 00 	jal 402880 <free>
  40273c:	20 0a 10 00 
  402740:	01 00 00 00 	j 402848 <_free_internal+0x878>
  402744:	12 0a 10 00 
  402748:	05 00 00 00 	beq $3,$0,4027b8 <_free_internal+0x7e8>
  40274c:	1a 00 00 03 
  402750:	28 00 00 00 	lw $2,0($7)
  402754:	00 00 02 07 
  402758:	34 00 00 00 	sw $2,0($6)
  40275c:	00 00 02 06 
  402760:	34 00 00 00 	sw $7,4($6)
  402764:	04 00 07 06 
  402768:	34 00 00 00 	sw $6,0($7)
  40276c:	00 00 06 07 
  402770:	28 00 00 00 	lw $2,0($6)
  402774:	00 00 02 06 
  402778:	05 00 00 00 	beq $2,$0,402788 <_free_internal+0x7b8>
  40277c:	02 00 00 02 
  402780:	34 00 00 00 	sw $6,4($2)
  402784:	04 00 06 02 
  402788:	28 00 00 00 	lw $3,-32536($28)
  40278c:	e8 80 03 1c 
  402790:	42 00 00 00 	addu $3,$11,$3
  402794:	00 03 03 0b 
  402798:	28 00 00 00 	lw $2,4($3)
  40279c:	04 00 02 03 
  4027a0:	43 00 00 00 	addiu $2,$2,1
  4027a4:	01 00 02 02 
  4027a8:	34 00 00 00 	sw $2,4($3)
  4027ac:	04 00 02 03 
  4027b0:	01 00 00 00 	j 402848 <_free_internal+0x878>
  4027b4:	12 0a 10 00 
  4027b8:	42 00 00 00 	addu $7,$0,$6
  4027bc:	00 07 06 00 
  4027c0:	4f 00 00 00 	andi $2,$7,4095
  4027c4:	ff 0f 02 07 
  4027c8:	58 00 00 00 	srlv $2,$2,$9
  4027cc:	00 02 02 09 
  4027d0:	34 00 00 00 	sw $2,8($8)
  4027d4:	08 00 02 08 
  4027d8:	55 00 00 00 	sll $2,$9,0x3
  4027dc:	03 02 09 00 
  4027e0:	34 00 00 00 	sw $10,4($8)
  4027e4:	04 00 0a 08 
  4027e8:	a2 00 00 00 	lui $3,4096
  4027ec:	00 10 03 00 
  4027f0:	42 00 00 00 	addu $3,$3,$2
  4027f4:	00 03 02 03 
  4027f8:	28 00 00 00 	lw $3,1008($3)
  4027fc:	f0 03 03 03 
  402800:	34 00 00 00 	sw $3,0($7)
  402804:	00 00 03 07 
  402808:	a2 00 00 00 	lui $3,4096
  40280c:	00 10 03 00 
  402810:	43 00 00 00 	addiu $3,$3,1008
  402814:	f0 03 03 03 
  402818:	42 00 00 00 	addu $2,$2,$3
  40281c:	00 02 03 02 
  402820:	34 00 00 00 	sw $2,4($7)
  402824:	04 00 02 07 
  402828:	34 00 00 00 	sw $7,0($2)
  40282c:	00 00 07 02 
  402830:	28 00 00 00 	lw $2,0($7)
  402834:	00 00 02 07 
  402838:	05 00 00 00 	beq $2,$0,402848 <_free_internal+0x878>
  40283c:	02 00 00 02 
  402840:	34 00 00 00 	sw $7,4($2)
  402844:	04 00 07 02 
  402848:	28 00 00 00 	lw $31,32($29)
  40284c:	20 00 1f 1d 
  402850:	28 00 00 00 	lw $19,28($29)
  402854:	1c 00 13 1d 
  402858:	28 00 00 00 	lw $18,24($29)
  40285c:	18 00 12 1d 
  402860:	28 00 00 00 	lw $17,20($29)
  402864:	14 00 11 1d 
  402868:	28 00 00 00 	lw $16,16($29)
  40286c:	10 00 10 1d 
  402870:	43 00 00 00 	addiu $29,$29,40
  402874:	28 00 1d 1d 
  402878:	03 00 00 00 	jr $31
  40287c:	00 00 00 1f 

00402880 <free>:
  402880:	43 00 00 00 	addiu $29,$29,-24
  402884:	e8 ff 1d 1d 
  402888:	34 00 00 00 	sw $31,16($29)
  40288c:	10 00 1f 1d 
  402890:	05 00 00 00 	beq $4,$0,402908 <free+0x88>
  402894:	1c 00 00 04 
  402898:	28 00 00 00 	lw $3,-32672($28)
  40289c:	60 80 03 1c 
  4028a0:	05 00 00 00 	beq $3,$0,4028c8 <free+0x48>
  4028a4:	08 00 00 03 
  4028a8:	28 00 00 00 	lw $2,4($3)
  4028ac:	04 00 02 03 
  4028b0:	05 00 00 00 	beq $2,$4,4028e8 <free+0x68>
  4028b4:	0c 00 04 02 
  4028b8:	28 00 00 00 	lw $3,0($3)
  4028bc:	00 00 03 03 
  4028c0:	06 00 00 00 	bne $3,$0,4028a8 <free+0x28>
  4028c4:	f8 ff 00 03 
  4028c8:	28 00 00 00 	lw $2,-32512($28)
  4028cc:	00 81 02 1c 
  4028d0:	05 00 00 00 	beq $2,$0,402900 <free+0x80>
  4028d4:	0a 00 00 02 
  4028d8:	04 00 00 00 	jalr $31,$2
  4028dc:	00 1f 00 02 
  4028e0:	01 00 00 00 	j 402908 <free+0x88>
  4028e4:	42 0a 10 00 
  4028e8:	28 00 00 00 	lw $4,8($3)
  4028ec:	08 00 04 03 
  4028f0:	34 00 00 00 	sw $0,4($3)
  4028f4:	04 00 00 03 
  4028f8:	01 00 00 00 	j 4028c8 <free+0x48>
  4028fc:	32 0a 10 00 
  402900:	02 00 00 00 	jal 401fd0 <_free_internal>
  402904:	f4 07 10 00 
  402908:	28 00 00 00 	lw $31,16($29)
  40290c:	10 00 1f 1d 
  402910:	43 00 00 00 	addiu $29,$29,24
  402914:	18 00 1d 1d 
  402918:	03 00 00 00 	jr $31
  40291c:	00 00 00 1f 

00402920 <strchr>:
  402920:	43 00 00 00 	addiu $29,$29,-16
  402924:	f0 ff 1d 1d 
  402928:	4f 00 00 00 	andi $5,$5,255
  40292c:	ff 00 05 05 
  402930:	4f 00 00 00 	andi $2,$4,3
  402934:	03 00 02 04 
  402938:	05 00 00 00 	beq $2,$0,402970 <strchr+0x50>
  40293c:	0c 00 00 02 
  402940:	22 00 00 00 	lbu $2,0($4)
  402944:	00 00 02 04 
  402948:	05 00 00 00 	beq $2,$5,402a98 <strchr+0x178>
  40294c:	52 00 05 02 
  402950:	05 00 00 00 	beq $2,$0,402aa8 <strchr+0x188>
  402954:	54 00 00 02 
  402958:	43 00 00 00 	addiu $4,$4,1
  40295c:	01 00 04 04 
  402960:	4f 00 00 00 	andi $2,$4,3
  402964:	03 00 02 04 
  402968:	06 00 00 00 	bne $2,$0,402940 <strchr+0x20>
  40296c:	f4 ff 00 02 
  402970:	a2 00 00 00 	lui $8,32510
  402974:	fe 7e 08 00 
  402978:	51 00 00 00 	ori $8,$8,65279
  40297c:	ff fe 08 08 
  402980:	55 00 00 00 	sll $2,$5,0x8
  402984:	08 02 05 00 
  402988:	50 00 00 00 	or $9,$5,$2
  40298c:	00 09 02 05 
  402990:	55 00 00 00 	sll $2,$9,0x10
  402994:	10 02 09 00 
  402998:	50 00 00 00 	or $9,$9,$2
  40299c:	00 09 02 09 
  4029a0:	28 00 00 00 	lw $6,0($4)
  4029a4:	00 00 06 04 
  4029a8:	54 00 00 00 	nor $7,$0,$8
  4029ac:	00 07 08 00 
  4029b0:	43 00 00 00 	addiu $4,$4,4
  4029b4:	04 00 04 04 
  4029b8:	42 00 00 00 	addu $3,$6,$8
  4029bc:	00 03 08 06 
  4029c0:	54 00 00 00 	nor $2,$0,$6
  4029c4:	00 02 06 00 
  4029c8:	52 00 00 00 	xor $3,$3,$2
  4029cc:	00 03 02 03 
  4029d0:	4e 00 00 00 	and $3,$3,$7
  4029d4:	00 03 07 03 
  4029d8:	06 00 00 00 	bne $3,$0,402a10 <strchr+0xf0>
  4029dc:	0c 00 00 03 
  4029e0:	52 00 00 00 	xor $2,$6,$9
  4029e4:	00 02 09 06 
  4029e8:	42 00 00 00 	addu $3,$2,$8
  4029ec:	00 03 08 02 
  4029f0:	54 00 00 00 	nor $2,$0,$2
  4029f4:	00 02 02 00 
  4029f8:	52 00 00 00 	xor $3,$3,$2
  4029fc:	00 03 02 03 
  402a00:	4e 00 00 00 	and $3,$3,$7
  402a04:	00 03 07 03 
  402a08:	05 00 00 00 	beq $3,$0,4029a0 <strchr+0x80>
  402a0c:	e4 ff 00 03 
  402a10:	22 00 00 00 	lbu $3,-4($4)
  402a14:	fc ff 03 04 
  402a18:	43 00 00 00 	addiu $2,$4,-4
  402a1c:	fc ff 02 04 
  402a20:	05 00 00 00 	beq $3,$5,402ab0 <strchr+0x190>
  402a24:	22 00 05 03 
  402a28:	05 00 00 00 	beq $3,$0,402aa8 <strchr+0x188>
  402a2c:	1e 00 00 03 
  402a30:	22 00 00 00 	lbu $3,-3($4)
  402a34:	fd ff 03 04 
  402a38:	43 00 00 00 	addiu $2,$4,-3
  402a3c:	fd ff 02 04 
  402a40:	05 00 00 00 	beq $3,$5,402ab0 <strchr+0x190>
  402a44:	1a 00 05 03 
  402a48:	05 00 00 00 	beq $3,$0,402aa8 <strchr+0x188>
  402a4c:	16 00 00 03 
  402a50:	22 00 00 00 	lbu $3,-2($4)
  402a54:	fe ff 03 04 
  402a58:	43 00 00 00 	addiu $2,$4,-2
  402a5c:	fe ff 02 04 
  402a60:	05 00 00 00 	beq $3,$5,402ab0 <strchr+0x190>
  402a64:	12 00 05 03 
  402a68:	05 00 00 00 	beq $3,$0,402aa8 <strchr+0x188>
  402a6c:	0e 00 00 03 
  402a70:	22 00 00 00 	lbu $3,-1($4)
  402a74:	ff ff 03 04 
  402a78:	43 00 00 00 	addiu $2,$4,-1
  402a7c:	ff ff 02 04 
  402a80:	05 00 00 00 	beq $3,$5,402ab0 <strchr+0x190>
  402a84:	0a 00 05 03 
  402a88:	06 00 00 00 	bne $3,$0,4029a0 <strchr+0x80>
  402a8c:	c4 ff 00 03 
  402a90:	01 00 00 00 	j 402aa8 <strchr+0x188>
  402a94:	aa 0a 10 00 
  402a98:	42 00 00 00 	addu $2,$0,$4
  402a9c:	00 02 04 00 
  402aa0:	01 00 00 00 	j 402ab0 <strchr+0x190>
  402aa4:	ac 0a 10 00 
  402aa8:	42 00 00 00 	addu $2,$0,$0
  402aac:	00 02 00 00 
  402ab0:	43 00 00 00 	addiu $29,$29,16
  402ab4:	10 00 1d 1d 
  402ab8:	03 00 00 00 	jr $31
  402abc:	00 00 00 1f 

00402ac0 <__stdio_check_funcs>:
  402ac0:	43 00 00 00 	addiu $29,$29,-24
  402ac4:	e8 ff 1d 1d 
  402ac8:	34 00 00 00 	sw $16,16($29)
  402acc:	10 00 10 1d 
  402ad0:	42 00 00 00 	addu $16,$0,$4
  402ad4:	00 10 04 00 
  402ad8:	34 00 00 00 	sw $31,20($29)
  402adc:	14 00 1f 1d 
  402ae0:	28 00 00 00 	lw $2,76($16)
  402ae4:	4c 00 02 10 
  402ae8:	4f 00 00 00 	andi $2,$2,16384
  402aec:	00 40 02 02 
  402af0:	06 00 00 00 	bne $2,$0,402ba8 <__stdio_check_funcs+0xe8>
  402af4:	2c 00 00 02 
  402af8:	28 00 00 00 	lw $2,-32656($28)
  402afc:	70 80 02 1c 
  402b00:	a2 00 00 00 	lui $3,4096
  402b04:	00 10 03 00 
  402b08:	28 00 00 00 	lw $3,852($3)
  402b0c:	54 03 03 03 
  402b10:	34 00 00 00 	sw $2,52($16)
  402b14:	34 00 02 10 
  402b18:	34 00 00 00 	sw $3,56($16)
  402b1c:	38 00 03 10 
  402b20:	a2 00 00 00 	lui $5,4096
  402b24:	00 10 05 00 
  402b28:	43 00 00 00 	addiu $5,$5,0
  402b2c:	00 00 05 05 
  402b30:	28 00 00 00 	lw $2,0($5)
  402b34:	00 00 02 05 
  402b38:	28 00 00 00 	lw $3,4($5)
  402b3c:	04 00 03 05 
  402b40:	28 00 00 00 	lw $4,8($5)
  402b44:	08 00 04 05 
  402b48:	34 00 00 00 	sw $2,32($16)
  402b4c:	20 00 02 10 
  402b50:	34 00 00 00 	sw $3,36($16)
  402b54:	24 00 03 10 
  402b58:	34 00 00 00 	sw $4,40($16)
  402b5c:	28 00 04 10 
  402b60:	28 00 00 00 	lw $2,12($5)
  402b64:	0c 00 02 05 
  402b68:	28 00 00 00 	lw $3,16($5)
  402b6c:	10 00 03 05 
  402b70:	34 00 00 00 	sw $2,44($16)
  402b74:	2c 00 02 10 
  402b78:	34 00 00 00 	sw $3,48($16)
  402b7c:	30 00 03 10 
  402b80:	42 00 00 00 	addu $4,$0,$16
  402b84:	00 04 10 00 
  402b88:	02 00 00 00 	jal 405560 <__stdio_init_stream>
  402b8c:	58 15 10 00 
  402b90:	28 00 00 00 	lw $2,76($16)
  402b94:	4c 00 02 10 
  402b98:	51 00 00 00 	ori $2,$2,16384
  402b9c:	00 40 02 02 
  402ba0:	34 00 00 00 	sw $2,76($16)
  402ba4:	4c 00 02 10 
  402ba8:	28 00 00 00 	lw $31,20($29)
  402bac:	14 00 1f 1d 
  402bb0:	28 00 00 00 	lw $16,16($29)
  402bb4:	10 00 10 1d 
  402bb8:	43 00 00 00 	addiu $29,$29,24
  402bbc:	18 00 1d 1d 
  402bc0:	03 00 00 00 	jr $31
  402bc4:	00 00 00 1f 

00402bc8 <__stdio_check_offset>:
  402bc8:	43 00 00 00 	addiu $29,$29,-40
  402bcc:	d8 ff 1d 1d 
  402bd0:	34 00 00 00 	sw $16,24($29)
  402bd4:	18 00 10 1d 
  402bd8:	42 00 00 00 	addu $16,$0,$4
  402bdc:	00 10 04 00 
  402be0:	34 00 00 00 	sw $31,32($29)
  402be4:	20 00 1f 1d 
  402be8:	34 00 00 00 	sw $17,28($29)
  402bec:	1c 00 11 1d 
  402bf0:	28 00 00 00 	lw $2,76($16)
  402bf4:	4c 00 02 10 
  402bf8:	4f 00 00 00 	andi $2,$2,16384
  402bfc:	00 40 02 02 
  402c00:	06 00 00 00 	bne $2,$0,402cb8 <__stdio_check_offset+0xf0>
  402c04:	2c 00 00 02 
  402c08:	28 00 00 00 	lw $2,-32656($28)
  402c0c:	70 80 02 1c 
  402c10:	a2 00 00 00 	lui $3,4096
  402c14:	00 10 03 00 
  402c18:	28 00 00 00 	lw $3,852($3)
  402c1c:	54 03 03 03 
  402c20:	34 00 00 00 	sw $2,52($16)
  402c24:	34 00 02 10 
  402c28:	34 00 00 00 	sw $3,56($16)
  402c2c:	38 00 03 10 
  402c30:	a2 00 00 00 	lui $5,4096
  402c34:	00 10 05 00 
  402c38:	43 00 00 00 	addiu $5,$5,0
  402c3c:	00 00 05 05 
  402c40:	28 00 00 00 	lw $2,0($5)
  402c44:	00 00 02 05 
  402c48:	28 00 00 00 	lw $3,4($5)
  402c4c:	04 00 03 05 
  402c50:	28 00 00 00 	lw $4,8($5)
  402c54:	08 00 04 05 
  402c58:	34 00 00 00 	sw $2,32($16)
  402c5c:	20 00 02 10 
  402c60:	34 00 00 00 	sw $3,36($16)
  402c64:	24 00 03 10 
  402c68:	34 00 00 00 	sw $4,40($16)
  402c6c:	28 00 04 10 
  402c70:	28 00 00 00 	lw $2,12($5)
  402c74:	0c 00 02 05 
  402c78:	28 00 00 00 	lw $3,16($5)
  402c7c:	10 00 03 05 
  402c80:	34 00 00 00 	sw $2,44($16)
  402c84:	2c 00 02 10 
  402c88:	34 00 00 00 	sw $3,48($16)
  402c8c:	30 00 03 10 
  402c90:	42 00 00 00 	addu $4,$0,$16
  402c94:	00 04 10 00 
  402c98:	02 00 00 00 	jal 405560 <__stdio_init_stream>
  402c9c:	58 15 10 00 
  402ca0:	28 00 00 00 	lw $2,76($16)
  402ca4:	4c 00 02 10 
  402ca8:	51 00 00 00 	ori $2,$2,16384
  402cac:	00 40 02 02 
  402cb0:	34 00 00 00 	sw $2,76($16)
  402cb4:	4c 00 02 10 
  402cb8:	28 00 00 00 	lw $2,16($16)
  402cbc:	10 00 02 10 
  402cc0:	06 00 00 00 	bne $2,$0,402da0 <__stdio_check_offset+0x1d8>
  402cc4:	36 00 00 02 
  402cc8:	28 00 00 00 	lw $2,76($16)
  402ccc:	4c 00 02 10 
  402cd0:	4f 00 00 00 	andi $2,$2,2048
  402cd4:	00 08 02 02 
  402cd8:	06 00 00 00 	bne $2,$0,402da0 <__stdio_check_offset+0x1d8>
  402cdc:	30 00 00 02 
  402ce0:	28 00 00 00 	lw $2,20($16)
  402ce4:	14 00 02 10 
  402ce8:	06 00 00 00 	bne $2,$0,402d00 <__stdio_check_offset+0x138>
  402cec:	04 00 00 02 
  402cf0:	43 00 00 00 	addiu $2,$0,1024
  402cf4:	00 04 02 00 
  402cf8:	34 00 00 00 	sw $2,20($16)
  402cfc:	14 00 02 10 
  402d00:	28 00 00 00 	lw $4,20($16)
  402d04:	14 00 04 10 
  402d08:	28 00 00 00 	lw $17,-32592($28)
  402d0c:	b0 80 11 1c 
  402d10:	5e 00 00 00 	sltiu $2,$4,128
  402d14:	80 00 02 04 
  402d18:	06 00 00 00 	bne $2,$0,402d68 <__stdio_check_offset+0x1a0>
  402d1c:	12 00 00 02 
  402d20:	02 00 00 00 	jal 400f78 <malloc>
  402d24:	de 03 10 00 
  402d28:	34 00 00 00 	sw $2,16($16)
  402d2c:	10 00 02 10 
  402d30:	06 00 00 00 	bne $2,$0,402d68 <__stdio_check_offset+0x1a0>
  402d34:	0c 00 00 02 
  402d38:	28 00 00 00 	lw $2,20($16)
  402d3c:	14 00 02 10 
  402d40:	57 00 00 00 	srl $2,$2,0x1
  402d44:	01 02 02 00 
  402d48:	42 00 00 00 	addu $4,$0,$2
  402d4c:	00 04 02 00 
  402d50:	5e 00 00 00 	sltiu $2,$4,128
  402d54:	80 00 02 04 
  402d58:	34 00 00 00 	sw $4,20($16)
  402d5c:	14 00 04 10 
  402d60:	05 00 00 00 	beq $2,$0,402d20 <__stdio_check_offset+0x158>
  402d64:	ee ff 00 02 
  402d68:	28 00 00 00 	lw $2,16($16)
  402d6c:	10 00 02 10 
  402d70:	34 00 00 00 	sw $17,-32592($28)
  402d74:	b0 80 11 1c 
  402d78:	06 00 00 00 	bne $2,$0,402da0 <__stdio_check_offset+0x1d8>
  402d7c:	08 00 00 02 
  402d80:	28 00 00 00 	lw $2,76($16)
  402d84:	4c 00 02 10 
  402d88:	34 00 00 00 	sw $0,20($16)
  402d8c:	14 00 00 10 
  402d90:	51 00 00 00 	ori $2,$2,2048
  402d94:	00 08 02 02 
  402d98:	34 00 00 00 	sw $2,76($16)
  402d9c:	4c 00 02 10 
  402da0:	28 00 00 00 	lw $2,4($16)
  402da4:	04 00 02 10 
  402da8:	06 00 00 00 	bne $2,$0,402dd8 <__stdio_check_offset+0x210>
  402dac:	0a 00 00 02 
  402db0:	28 00 00 00 	lw $2,16($16)
  402db4:	10 00 02 10 
  402db8:	28 00 00 00 	lw $3,16($16)
  402dbc:	10 00 03 10 
  402dc0:	34 00 00 00 	sw $2,4($16)
  402dc4:	04 00 02 10 
  402dc8:	34 00 00 00 	sw $3,8($16)
  402dcc:	08 00 03 10 
  402dd0:	34 00 00 00 	sw $3,12($16)
  402dd4:	0c 00 03 10 
  402dd8:	28 00 00 00 	lw $3,60($16)
  402ddc:	3c 00 03 10 
  402de0:	43 00 00 00 	addiu $2,$0,-1
  402de4:	ff ff 02 00 
  402de8:	06 00 00 00 	bne $3,$2,402e90 <__stdio_check_offset+0x2c8>
  402dec:	28 00 02 03 
  402df0:	28 00 00 00 	lw $2,40($16)
  402df4:	28 00 02 10 
  402df8:	06 00 00 00 	bne $2,$0,402e20 <__stdio_check_offset+0x258>
  402dfc:	08 00 00 02 
  402e00:	43 00 00 00 	addiu $2,$0,29
  402e04:	1d 00 02 00 
  402e08:	34 00 00 00 	sw $2,-32592($28)
  402e0c:	b0 80 02 1c 
  402e10:	43 00 00 00 	addiu $2,$0,-1
  402e14:	ff ff 02 00 
  402e18:	01 00 00 00 	j 402ec0 <__stdio_check_offset+0x2f8>
  402e1c:	b0 0b 10 00 
  402e20:	28 00 00 00 	lw $4,24($16)
  402e24:	18 00 04 10 
  402e28:	34 00 00 00 	sw $0,16($29)
  402e2c:	10 00 00 1d 
  402e30:	28 00 00 00 	lw $2,40($16)
  402e34:	28 00 02 10 
  402e38:	43 00 00 00 	addiu $5,$29,16
  402e3c:	10 00 05 1d 
  402e40:	43 00 00 00 	addiu $6,$0,1
  402e44:	01 00 06 00 
  402e48:	04 00 00 00 	jalr $31,$2
  402e4c:	00 1f 00 02 
  402e50:	0a 00 00 00 	bgez $2,402e80 <__stdio_check_offset+0x2b8>
  402e54:	0a 00 00 02 
  402e58:	28 00 00 00 	lw $3,-32592($28)
  402e5c:	b0 80 03 1c 
  402e60:	43 00 00 00 	addiu $2,$0,29
  402e64:	1d 00 02 00 
  402e68:	06 00 00 00 	bne $3,$2,402e10 <__stdio_check_offset+0x248>
  402e6c:	e8 ff 02 03 
  402e70:	34 00 00 00 	sw $0,40($16)
  402e74:	28 00 00 10 
  402e78:	01 00 00 00 	j 402e10 <__stdio_check_offset+0x248>
  402e7c:	84 0b 10 00 
  402e80:	28 00 00 00 	lw $2,16($29)
  402e84:	10 00 02 1d 
  402e88:	34 00 00 00 	sw $2,60($16)
  402e8c:	3c 00 02 10 
  402e90:	28 00 00 00 	lw $3,64($16)
  402e94:	40 00 03 10 
  402e98:	43 00 00 00 	addiu $2,$0,-1
  402e9c:	ff ff 02 00 
  402ea0:	06 00 00 00 	bne $3,$2,402eb8 <__stdio_check_offset+0x2f0>
  402ea4:	04 00 02 03 
  402ea8:	28 00 00 00 	lw $2,60($16)
  402eac:	3c 00 02 10 
  402eb0:	34 00 00 00 	sw $2,64($16)
  402eb4:	40 00 02 10 
  402eb8:	42 00 00 00 	addu $2,$0,$0
  402ebc:	00 02 00 00 
  402ec0:	28 00 00 00 	lw $31,32($29)
  402ec4:	20 00 1f 1d 
  402ec8:	28 00 00 00 	lw $17,28($29)
  402ecc:	1c 00 11 1d 
  402ed0:	28 00 00 00 	lw $16,24($29)
  402ed4:	18 00 10 1d 
  402ed8:	43 00 00 00 	addiu $29,$29,40
  402edc:	28 00 1d 1d 
  402ee0:	03 00 00 00 	jr $31
  402ee4:	00 00 00 1f 

00402ee8 <flushbuf>:
  402ee8:	43 00 00 00 	addiu $29,$29,-72
  402eec:	b8 ff 1d 1d 
  402ef0:	34 00 00 00 	sw $16,32($29)
  402ef4:	20 00 10 1d 
  402ef8:	42 00 00 00 	addu $16,$0,$4
  402efc:	00 10 04 00 
  402f00:	34 00 00 00 	sw $20,48($29)
  402f04:	30 00 14 1d 
  402f08:	42 00 00 00 	addu $20,$0,$5
  402f0c:	00 14 05 00 
  402f10:	54 00 00 00 	nor $2,$0,$20
  402f14:	00 02 14 00 
  402f18:	34 00 00 00 	sw $21,52($29)
  402f1c:	34 00 15 1d 
  402f20:	5e 00 00 00 	sltiu $21,$2,1
  402f24:	01 00 15 02 
  402f28:	34 00 00 00 	sw $31,64($29)
  402f2c:	40 00 1f 1d 
  402f30:	34 00 00 00 	sw $23,60($29)
  402f34:	3c 00 17 1d 
  402f38:	34 00 00 00 	sw $22,56($29)
  402f3c:	38 00 16 1d 
  402f40:	34 00 00 00 	sw $19,44($29)
  402f44:	2c 00 13 1d 
  402f48:	34 00 00 00 	sw $18,40($29)
  402f4c:	28 00 12 1d 
  402f50:	34 00 00 00 	sw $17,36($29)
  402f54:	24 00 11 1d 
  402f58:	28 00 00 00 	lw $5,12($16)
  402f5c:	0c 00 05 10 
  402f60:	28 00 00 00 	lw $2,16($16)
  402f64:	10 00 02 10 
  402f68:	42 00 00 00 	addu $23,$0,$0
  402f6c:	00 17 00 00 
  402f70:	43 00 00 00 	addiu $22,$0,-1
  402f74:	ff ff 16 00 
  402f78:	06 00 00 00 	bne $5,$2,403220 <flushbuf+0x338>
  402f7c:	a8 00 02 05 
  402f80:	42 00 00 00 	addu $19,$0,$0
  402f84:	00 13 00 00 
  402f88:	28 00 00 00 	lw $2,4($16)
  402f8c:	04 00 02 10 
  402f90:	28 00 00 00 	lw $3,64($16)
  402f94:	40 00 03 10 
  402f98:	28 00 00 00 	lw $4,28($16)
  402f9c:	1c 00 04 10 
  402fa0:	45 00 00 00 	subu $2,$2,$5
  402fa4:	00 02 05 02 
  402fa8:	42 00 00 00 	addu $2,$2,$3
  402fac:	00 02 03 02 
  402fb0:	34 00 00 00 	sw $2,64($16)
  402fb4:	40 00 02 10 
  402fb8:	4f 00 00 00 	andi $2,$4,1
  402fbc:	01 00 02 04 
  402fc0:	05 00 00 00 	beq $2,$0,403178 <flushbuf+0x290>
  402fc4:	6c 00 00 02 
  402fc8:	28 00 00 00 	lw $2,52($16)
  402fcc:	34 00 02 10 
  402fd0:	05 00 00 00 	beq $2,$0,403178 <flushbuf+0x290>
  402fd4:	68 00 00 02 
  402fd8:	4f 00 00 00 	andi $2,$4,4
  402fdc:	04 00 02 04 
  402fe0:	06 00 00 00 	bne $2,$0,403178 <flushbuf+0x290>
  402fe4:	64 00 00 02 
  402fe8:	28 00 00 00 	lw $18,-32592($28)
  402fec:	b0 80 12 1c 
  402ff0:	28 00 00 00 	lw $2,16($16)
  402ff4:	10 00 02 10 
  402ff8:	42 00 00 00 	addu $17,$0,$0
  402ffc:	00 11 00 00 
  403000:	05 00 00 00 	beq $2,$0,403058 <flushbuf+0x170>
  403004:	14 00 00 02 
  403008:	42 00 00 00 	addu $4,$0,$16
  40300c:	00 04 10 00 
  403010:	02 00 00 00 	jal 402bc8 <__stdio_check_offset>
  403014:	f2 0a 10 00 
  403018:	05 00 00 00 	beq $2,$22,403058 <flushbuf+0x170>
  40301c:	0e 00 16 02 
  403020:	28 00 00 00 	lw $2,64($16)
  403024:	40 00 02 10 
  403028:	28 00 00 00 	lw $3,20($16)
  40302c:	14 00 03 10 
  403030:	49 00 00 00 	divu $0,$2,$3
  403034:	00 00 03 02 
  403038:	06 00 00 00 	bne $3,$0,403048 <flushbuf+0x160>
  40303c:	02 00 00 03 
  403040:	a1 00 00 00 	break 
  403044:	07 00 00 00 
  403048:	4a 00 00 00 	mfhi $3
  40304c:	00 03 00 00 
  403050:	06 00 00 00 	bne $3,$0,403060 <flushbuf+0x178>
  403054:	02 00 00 03 
  403058:	43 00 00 00 	addiu $17,$0,1
  40305c:	01 00 11 00 
  403060:	34 00 00 00 	sw $18,-32592($28)
  403064:	b0 80 12 1c 
  403068:	06 00 00 00 	bne $17,$0,403170 <flushbuf+0x288>
  40306c:	40 00 00 11 
  403070:	28 00 00 00 	lw $3,64($16)
  403074:	40 00 03 10 
  403078:	28 00 00 00 	lw $2,20($16)
  40307c:	14 00 02 10 
  403080:	49 00 00 00 	divu $0,$3,$2
  403084:	00 00 02 03 
  403088:	06 00 00 00 	bne $2,$0,403098 <flushbuf+0x1b0>
  40308c:	02 00 00 02 
  403090:	a1 00 00 00 	break 
  403094:	07 00 00 00 
  403098:	4a 00 00 00 	mfhi $17
  40309c:	00 11 00 00 
  4030a0:	28 00 00 00 	lw $2,52($16)
  4030a4:	34 00 02 10 
  4030a8:	42 00 00 00 	addu $4,$0,$16
  4030ac:	00 04 10 00 
  4030b0:	45 00 00 00 	subu $3,$3,$17
  4030b4:	00 03 11 03 
  4030b8:	34 00 00 00 	sw $3,64($16)
  4030bc:	40 00 03 10 
  4030c0:	04 00 00 00 	jalr $31,$2
  4030c4:	00 1f 00 02 
  4030c8:	43 00 00 00 	addiu $3,$0,-1
  4030cc:	ff ff 03 00 
  4030d0:	06 00 00 00 	bne $2,$3,4030f0 <flushbuf+0x208>
  4030d4:	06 00 03 02 
  4030d8:	28 00 00 00 	lw $2,76($16)
  4030dc:	4c 00 02 10 
  4030e0:	4f 00 00 00 	andi $2,$2,1024
  4030e4:	00 04 02 02 
  4030e8:	06 00 00 00 	bne $2,$0,403618 <flushbuf+0x730>
  4030ec:	4a 01 00 02 
  4030f0:	28 00 00 00 	lw $3,76($16)
  4030f4:	4c 00 03 10 
  4030f8:	43 00 00 00 	addiu $2,$0,-513
  4030fc:	ff fd 02 00 
  403100:	28 00 00 00 	lw $4,8($16)
  403104:	08 00 04 10 
  403108:	28 00 00 00 	lw $5,16($16)
  40310c:	10 00 05 10 
  403110:	4e 00 00 00 	and $3,$3,$2
  403114:	00 03 02 03 
  403118:	43 00 00 00 	addiu $2,$0,-1025
  40311c:	ff fb 02 00 
  403120:	4e 00 00 00 	and $3,$3,$2
  403124:	00 03 02 03 
  403128:	45 00 00 00 	subu $4,$4,$5
  40312c:	00 04 05 04 
  403130:	5d 00 00 00 	sltu $4,$4,$17
  403134:	00 04 11 04 
  403138:	34 00 00 00 	sw $3,76($16)
  40313c:	4c 00 03 10 
  403140:	05 00 00 00 	beq $4,$0,403168 <flushbuf+0x280>
  403144:	08 00 00 04 
  403148:	28 00 00 00 	lw $2,64($16)
  40314c:	40 00 02 10 
  403150:	42 00 00 00 	addu $2,$17,$2
  403154:	00 02 02 11 
  403158:	34 00 00 00 	sw $2,64($16)
  40315c:	40 00 02 10 
  403160:	01 00 00 00 	j 403170 <flushbuf+0x288>
  403164:	5c 0c 10 00 
  403168:	42 00 00 00 	addu $19,$0,$17
  40316c:	00 13 11 00 
  403170:	43 00 00 00 	addiu $23,$0,1
  403174:	01 00 17 00 
  403178:	28 00 00 00 	lw $4,16($16)
  40317c:	10 00 04 10 
  403180:	05 00 00 00 	beq $4,$0,403220 <flushbuf+0x338>
  403184:	26 00 00 04 
  403188:	28 00 00 00 	lw $2,20($16)
  40318c:	14 00 02 10 
  403190:	28 00 00 00 	lw $3,16($16)
  403194:	10 00 03 10 
  403198:	42 00 00 00 	addu $2,$4,$2
  40319c:	00 02 02 04 
  4031a0:	42 00 00 00 	addu $3,$19,$3
  4031a4:	00 03 03 13 
  4031a8:	34 00 00 00 	sw $2,12($16)
  4031ac:	0c 00 02 10 
  4031b0:	34 00 00 00 	sw $3,4($16)
  4031b4:	04 00 03 10 
  4031b8:	06 00 00 00 	bne $21,$0,403220 <flushbuf+0x338>
  4031bc:	18 00 00 15 
  4031c0:	43 00 00 00 	addiu $2,$3,1
  4031c4:	01 00 02 03 
  4031c8:	34 00 00 00 	sw $2,4($16)
  4031cc:	04 00 02 10 
  4031d0:	30 00 00 00 	sb $20,0($3)
  4031d4:	00 00 14 03 
  4031d8:	28 00 00 00 	lw $2,76($16)
  4031dc:	4c 00 02 10 
  4031e0:	4f 00 00 00 	andi $2,$2,4096
  4031e4:	00 10 02 02 
  4031e8:	05 00 00 00 	beq $2,$0,403208 <flushbuf+0x320>
  4031ec:	06 00 00 02 
  4031f0:	4f 00 00 00 	andi $3,$20,255
  4031f4:	ff 00 03 14 
  4031f8:	43 00 00 00 	addiu $2,$0,10
  4031fc:	0a 00 02 00 
  403200:	05 00 00 00 	beq $3,$2,403218 <flushbuf+0x330>
  403204:	04 00 02 03 
  403208:	42 00 00 00 	addu $19,$0,$0
  40320c:	00 13 00 00 
  403210:	01 00 00 00 	j 4035c0 <flushbuf+0x6d8>
  403214:	70 0d 10 00 
  403218:	43 00 00 00 	addiu $21,$0,1
  40321c:	01 00 15 00 
  403220:	28 00 00 00 	lw $2,4($16)
  403224:	04 00 02 10 
  403228:	28 00 00 00 	lw $4,16($16)
  40322c:	10 00 04 10 
  403230:	45 00 00 00 	subu $19,$2,$4
  403234:	00 13 04 02 
  403238:	05 00 00 00 	beq $19,$0,403270 <flushbuf+0x388>
  40323c:	0c 00 00 13 
  403240:	28 00 00 00 	lw $3,8($16)
  403244:	08 00 03 10 
  403248:	42 00 00 00 	addu $18,$0,$19
  40324c:	00 12 13 00 
  403250:	5d 00 00 00 	sltu $2,$2,$3
  403254:	00 02 03 02 
  403258:	05 00 00 00 	beq $2,$0,403278 <flushbuf+0x390>
  40325c:	06 00 00 02 
  403260:	45 00 00 00 	subu $18,$3,$4
  403264:	00 12 04 03 
  403268:	01 00 00 00 	j 403278 <flushbuf+0x390>
  40326c:	9e 0c 10 00 
  403270:	42 00 00 00 	addu $18,$0,$0
  403274:	00 12 00 00 
  403278:	28 00 00 00 	lw $2,36($16)
  40327c:	24 00 02 10 
  403280:	05 00 00 00 	beq $2,$0,403298 <flushbuf+0x3b0>
  403284:	04 00 00 02 
  403288:	06 00 00 00 	bne $18,$0,4032c8 <flushbuf+0x3e0>
  40328c:	0e 00 00 12 
  403290:	05 00 00 00 	beq $21,$0,4034a8 <flushbuf+0x5c0>
  403294:	84 00 00 15 
  403298:	28 00 00 00 	lw $2,60($16)
  40329c:	3c 00 02 10 
  4032a0:	28 00 00 00 	lw $3,16($16)
  4032a4:	10 00 03 10 
  4032a8:	42 00 00 00 	addu $2,$18,$2
  4032ac:	00 02 02 12 
  4032b0:	34 00 00 00 	sw $3,4($16)
  4032b4:	04 00 03 10 
  4032b8:	34 00 00 00 	sw $2,60($16)
  4032bc:	3c 00 02 10 
  4032c0:	01 00 00 00 	j 4035c0 <flushbuf+0x6d8>
  4032c4:	70 0d 10 00 
  4032c8:	28 00 00 00 	lw $2,28($16)
  4032cc:	1c 00 02 10 
  4032d0:	4f 00 00 00 	andi $2,$2,4
  4032d4:	04 00 02 02 
  4032d8:	06 00 00 00 	bne $2,$0,4033e8 <flushbuf+0x500>
  4032dc:	42 00 00 02 
  4032e0:	28 00 00 00 	lw $17,-32592($28)
  4032e4:	b0 80 11 1c 
  4032e8:	42 00 00 00 	addu $4,$0,$16
  4032ec:	00 04 10 00 
  4032f0:	02 00 00 00 	jal 402bc8 <__stdio_check_offset>
  4032f4:	f2 0a 10 00 
  4032f8:	43 00 00 00 	addiu $3,$0,-1
  4032fc:	ff ff 03 00 
  403300:	06 00 00 00 	bne $2,$3,403330 <flushbuf+0x448>
  403304:	0a 00 03 02 
  403308:	28 00 00 00 	lw $3,-32592($28)
  40330c:	b0 80 03 1c 
  403310:	43 00 00 00 	addiu $2,$0,29
  403314:	1d 00 02 00 
  403318:	06 00 00 00 	bne $3,$2,4033d0 <flushbuf+0x4e8>
  40331c:	2c 00 02 03 
  403320:	34 00 00 00 	sw $17,-32592($28)
  403324:	b0 80 11 1c 
  403328:	01 00 00 00 	j 4033e8 <flushbuf+0x500>
  40332c:	fa 0c 10 00 
  403330:	28 00 00 00 	lw $3,64($16)
  403334:	40 00 03 10 
  403338:	28 00 00 00 	lw $2,60($16)
  40333c:	3c 00 02 10 
  403340:	05 00 00 00 	beq $3,$2,4033e8 <flushbuf+0x500>
  403344:	28 00 02 03 
  403348:	28 00 00 00 	lw $2,40($16)
  40334c:	28 00 02 10 
  403350:	06 00 00 00 	bne $2,$0,403378 <flushbuf+0x490>
  403354:	08 00 00 02 
  403358:	28 00 00 00 	lw $2,76($16)
  40335c:	4c 00 02 10 
  403360:	43 00 00 00 	addiu $3,$0,29
  403364:	1d 00 03 00 
  403368:	34 00 00 00 	sw $3,-32592($28)
  40336c:	b0 80 03 1c 
  403370:	01 00 00 00 	j 4033d8 <flushbuf+0x4f0>
  403374:	f6 0c 10 00 
  403378:	28 00 00 00 	lw $4,24($16)
  40337c:	18 00 04 10 
  403380:	28 00 00 00 	lw $2,40($16)
  403384:	28 00 02 10 
  403388:	43 00 00 00 	addiu $5,$29,16
  40338c:	10 00 05 1d 
  403390:	42 00 00 00 	addu $6,$0,$0
  403394:	00 06 00 00 
  403398:	34 00 00 00 	sw $3,16($29)
  40339c:	10 00 03 1d 
  4033a0:	04 00 00 00 	jalr $31,$2
  4033a4:	00 1f 00 02 
  4033a8:	09 00 00 00 	bltz $2,4033d0 <flushbuf+0x4e8>
  4033ac:	08 00 00 02 
  4033b0:	28 00 00 00 	lw $2,16($29)
  4033b4:	10 00 02 1d 
  4033b8:	28 00 00 00 	lw $3,64($16)
  4033bc:	40 00 03 10 
  4033c0:	34 00 00 00 	sw $2,60($16)
  4033c4:	3c 00 02 10 
  4033c8:	05 00 00 00 	beq $2,$3,4033e8 <flushbuf+0x500>
  4033cc:	06 00 03 02 
  4033d0:	28 00 00 00 	lw $2,76($16)
  4033d4:	4c 00 02 10 
  4033d8:	51 00 00 00 	ori $2,$2,1024
  4033dc:	00 04 02 02 
  4033e0:	34 00 00 00 	sw $2,76($16)
  4033e4:	4c 00 02 10 
  4033e8:	28 00 00 00 	lw $2,76($16)
  4033ec:	4c 00 02 10 
  4033f0:	4f 00 00 00 	andi $2,$2,1024
  4033f4:	00 04 02 02 
  4033f8:	06 00 00 00 	bne $2,$0,4034a8 <flushbuf+0x5c0>
  4033fc:	2a 00 00 02 
  403400:	28 00 00 00 	lw $4,24($16)
  403404:	18 00 04 10 
  403408:	28 00 00 00 	lw $5,16($16)
  40340c:	10 00 05 10 
  403410:	28 00 00 00 	lw $2,36($16)
  403414:	24 00 02 10 
  403418:	42 00 00 00 	addu $6,$0,$18
  40341c:	00 06 12 00 
  403420:	04 00 00 00 	jalr $31,$2
  403424:	00 1f 00 02 
  403428:	42 00 00 00 	addu $3,$0,$2
  40342c:	00 03 02 00 
  403430:	07 00 00 00 	blez $3,403480 <flushbuf+0x598>
  403434:	12 00 00 03 
  403438:	28 00 00 00 	lw $2,28($16)
  40343c:	1c 00 02 10 
  403440:	4f 00 00 00 	andi $2,$2,4
  403444:	04 00 02 02 
  403448:	05 00 00 00 	beq $2,$0,403468 <flushbuf+0x580>
  40344c:	06 00 00 02 
  403450:	43 00 00 00 	addiu $2,$0,-1
  403454:	ff ff 02 00 
  403458:	34 00 00 00 	sw $2,64($16)
  40345c:	40 00 02 10 
  403460:	01 00 00 00 	j 403478 <flushbuf+0x590>
  403464:	1e 0d 10 00 
  403468:	28 00 00 00 	lw $2,60($16)
  40346c:	3c 00 02 10 
  403470:	42 00 00 00 	addu $2,$3,$2
  403474:	00 02 02 03 
  403478:	34 00 00 00 	sw $2,60($16)
  40347c:	3c 00 02 10 
  403480:	5b 00 00 00 	slt $2,$3,$18
  403484:	00 02 12 03 
  403488:	05 00 00 00 	beq $2,$0,4034a8 <flushbuf+0x5c0>
  40348c:	06 00 00 02 
  403490:	28 00 00 00 	lw $2,76($16)
  403494:	4c 00 02 10 
  403498:	51 00 00 00 	ori $2,$2,1024
  40349c:	00 04 02 02 
  4034a0:	34 00 00 00 	sw $2,76($16)
  4034a4:	4c 00 02 10 
  4034a8:	28 00 00 00 	lw $2,16($16)
  4034ac:	10 00 02 10 
  4034b0:	34 00 00 00 	sw $2,4($16)
  4034b4:	04 00 02 10 
  4034b8:	06 00 00 00 	bne $21,$0,4035c0 <flushbuf+0x6d8>
  4034bc:	40 00 00 15 
  4034c0:	28 00 00 00 	lw $3,76($16)
  4034c4:	4c 00 03 10 
  4034c8:	4f 00 00 00 	andi $2,$3,1024
  4034cc:	00 04 02 03 
  4034d0:	06 00 00 00 	bne $2,$0,4035c0 <flushbuf+0x6d8>
  4034d4:	3a 00 00 02 
  4034d8:	28 00 00 00 	lw $2,16($16)
  4034dc:	10 00 02 10 
  4034e0:	05 00 00 00 	beq $2,$0,403510 <flushbuf+0x628>
  4034e4:	0a 00 00 02 
  4034e8:	4f 00 00 00 	andi $2,$3,4096
  4034ec:	00 10 02 03 
  4034f0:	05 00 00 00 	beq $2,$0,4035a0 <flushbuf+0x6b8>
  4034f4:	2a 00 00 02 
  4034f8:	4f 00 00 00 	andi $3,$20,255
  4034fc:	ff 00 03 14 
  403500:	43 00 00 00 	addiu $2,$0,10
  403504:	0a 00 02 00 
  403508:	06 00 00 00 	bne $3,$2,4035a0 <flushbuf+0x6b8>
  40350c:	24 00 02 03 
  403510:	28 00 00 00 	lw $4,24($16)
  403514:	18 00 04 10 
  403518:	28 00 00 00 	lw $2,36($16)
  40351c:	24 00 02 10 
  403520:	43 00 00 00 	addiu $5,$29,24
  403524:	18 00 05 1d 
  403528:	43 00 00 00 	addiu $6,$0,1
  40352c:	01 00 06 00 
  403530:	30 00 00 00 	sb $20,24($29)
  403534:	18 00 14 1d 
  403538:	04 00 00 00 	jalr $31,$2
  40353c:	00 1f 00 02 
  403540:	08 00 00 00 	bgtz $2,403568 <flushbuf+0x680>
  403544:	08 00 00 02 
  403548:	28 00 00 00 	lw $2,76($16)
  40354c:	4c 00 02 10 
  403550:	51 00 00 00 	ori $2,$2,1024
  403554:	00 04 02 02 
  403558:	34 00 00 00 	sw $2,76($16)
  40355c:	4c 00 02 10 
  403560:	01 00 00 00 	j 4035c0 <flushbuf+0x6d8>
  403564:	70 0d 10 00 
  403568:	28 00 00 00 	lw $2,60($16)
  40356c:	3c 00 02 10 
  403570:	28 00 00 00 	lw $3,64($16)
  403574:	40 00 03 10 
  403578:	43 00 00 00 	addiu $2,$2,1
  40357c:	01 00 02 02 
  403580:	43 00 00 00 	addiu $3,$3,1
  403584:	01 00 03 03 
  403588:	34 00 00 00 	sw $2,60($16)
  40358c:	3c 00 02 10 
  403590:	34 00 00 00 	sw $3,64($16)
  403594:	40 00 03 10 
  403598:	01 00 00 00 	j 4035c0 <flushbuf+0x6d8>
  40359c:	70 0d 10 00 
  4035a0:	28 00 00 00 	lw $3,4($16)
  4035a4:	04 00 03 10 
  4035a8:	43 00 00 00 	addiu $2,$3,1
  4035ac:	01 00 02 03 
  4035b0:	34 00 00 00 	sw $2,4($16)
  4035b4:	04 00 02 10 
  4035b8:	30 00 00 00 	sb $20,0($3)
  4035bc:	00 00 14 03 
  4035c0:	06 00 00 00 	bne $23,$0,4035f0 <flushbuf+0x708>
  4035c4:	0a 00 00 17 
  4035c8:	28 00 00 00 	lw $2,64($16)
  4035cc:	40 00 02 10 
  4035d0:	28 00 00 00 	lw $3,16($16)
  4035d4:	10 00 03 10 
  4035d8:	42 00 00 00 	addu $2,$19,$2
  4035dc:	00 02 02 13 
  4035e0:	34 00 00 00 	sw $2,64($16)
  4035e4:	40 00 02 10 
  4035e8:	34 00 00 00 	sw $3,8($16)
  4035ec:	08 00 03 10 
  4035f0:	28 00 00 00 	lw $2,76($16)
  4035f4:	4c 00 02 10 
  4035f8:	4f 00 00 00 	andi $2,$2,1536
  4035fc:	00 06 02 02 
  403600:	05 00 00 00 	beq $2,$0,403618 <flushbuf+0x730>
  403604:	04 00 00 02 
  403608:	28 00 00 00 	lw $2,12($16)
  40360c:	0c 00 02 10 
  403610:	34 00 00 00 	sw $2,4($16)
  403614:	04 00 02 10 
  403618:	28 00 00 00 	lw $31,64($29)
  40361c:	40 00 1f 1d 
  403620:	28 00 00 00 	lw $23,60($29)
  403624:	3c 00 17 1d 
  403628:	28 00 00 00 	lw $22,56($29)
  40362c:	38 00 16 1d 
  403630:	28 00 00 00 	lw $21,52($29)
  403634:	34 00 15 1d 
  403638:	28 00 00 00 	lw $20,48($29)
  40363c:	30 00 14 1d 
  403640:	28 00 00 00 	lw $19,44($29)
  403644:	2c 00 13 1d 
  403648:	28 00 00 00 	lw $18,40($29)
  40364c:	28 00 12 1d 
  403650:	28 00 00 00 	lw $17,36($29)
  403654:	24 00 11 1d 
  403658:	28 00 00 00 	lw $16,32($29)
  40365c:	20 00 10 1d 
  403660:	43 00 00 00 	addiu $29,$29,72
  403664:	48 00 1d 1d 
  403668:	03 00 00 00 	jr $31
  40366c:	00 00 00 1f 

00403670 <fillbuf>:
  403670:	43 00 00 00 	addiu $29,$29,-64
  403674:	c0 ff 1d 1d 
  403678:	34 00 00 00 	sw $16,32($29)
  40367c:	20 00 10 1d 
  403680:	42 00 00 00 	addu $16,$0,$4
  403684:	00 10 04 00 
  403688:	34 00 00 00 	sw $31,60($29)
  40368c:	3c 00 1f 1d 
  403690:	34 00 00 00 	sw $22,56($29)
  403694:	38 00 16 1d 
  403698:	34 00 00 00 	sw $21,52($29)
  40369c:	34 00 15 1d 
  4036a0:	34 00 00 00 	sw $20,48($29)
  4036a4:	30 00 14 1d 
  4036a8:	34 00 00 00 	sw $19,44($29)
  4036ac:	2c 00 13 1d 
  4036b0:	34 00 00 00 	sw $18,40($29)
  4036b4:	28 00 12 1d 
  4036b8:	34 00 00 00 	sw $17,36($29)
  4036bc:	24 00 11 1d 
  4036c0:	28 00 00 00 	lw $2,32($16)
  4036c4:	20 00 02 10 
  4036c8:	42 00 00 00 	addu $21,$0,$0
  4036cc:	00 15 00 00 
  4036d0:	42 00 00 00 	addu $20,$0,$0
  4036d4:	00 14 00 00 
  4036d8:	06 00 00 00 	bne $2,$0,403700 <fillbuf+0x90>
  4036dc:	08 00 00 02 
  4036e0:	28 00 00 00 	lw $2,76($16)
  4036e4:	4c 00 02 10 
  4036e8:	51 00 00 00 	ori $2,$2,512
  4036ec:	00 02 02 02 
  4036f0:	34 00 00 00 	sw $2,76($16)
  4036f4:	4c 00 02 10 
  4036f8:	01 00 00 00 	j 403a28 <fillbuf+0x3b8>
  4036fc:	8a 0e 10 00 
  403700:	28 00 00 00 	lw $5,16($16)
  403704:	10 00 05 10 
  403708:	06 00 00 00 	bne $5,$0,403728 <fillbuf+0xb8>
  40370c:	06 00 00 05 
  403710:	43 00 00 00 	addiu $18,$29,16
  403714:	10 00 12 1d 
  403718:	43 00 00 00 	addiu $17,$0,1
  40371c:	01 00 11 00 
  403720:	01 00 00 00 	j 403738 <fillbuf+0xc8>
  403724:	ce 0d 10 00 
  403728:	42 00 00 00 	addu $18,$0,$5
  40372c:	00 12 05 00 
  403730:	28 00 00 00 	lw $17,20($16)
  403734:	14 00 11 10 
  403738:	42 00 00 00 	addu $4,$0,$16
  40373c:	00 04 10 00 
  403740:	28 00 00 00 	lw $2,76($16)
  403744:	4c 00 02 10 
  403748:	28 00 00 00 	lw $22,-32592($28)
  40374c:	b0 80 16 1c 
  403750:	43 00 00 00 	addiu $3,$0,-513
  403754:	ff fd 03 00 
  403758:	4e 00 00 00 	and $2,$2,$3
  40375c:	00 02 03 02 
  403760:	34 00 00 00 	sw $2,76($16)
  403764:	4c 00 02 10 
  403768:	02 00 00 00 	jal 402bc8 <__stdio_check_offset>
  40376c:	f2 0a 10 00 
  403770:	06 00 00 00 	bne $2,$0,4038d8 <fillbuf+0x268>
  403774:	58 00 00 02 
  403778:	28 00 00 00 	lw $3,64($16)
  40377c:	40 00 03 10 
  403780:	28 00 00 00 	lw $2,60($16)
  403784:	3c 00 02 10 
  403788:	05 00 00 00 	beq $3,$2,4038d8 <fillbuf+0x268>
  40378c:	52 00 02 03 
  403790:	28 00 00 00 	lw $2,20($16)
  403794:	14 00 02 10 
  403798:	05 00 00 00 	beq $2,$0,4037d0 <fillbuf+0x160>
  40379c:	0c 00 00 02 
  4037a0:	49 00 00 00 	divu $0,$3,$2
  4037a4:	00 00 02 03 
  4037a8:	06 00 00 00 	bne $2,$0,4037b8 <fillbuf+0x148>
  4037ac:	02 00 00 02 
  4037b0:	a1 00 00 00 	break 
  4037b4:	07 00 00 00 
  4037b8:	4a 00 00 00 	mfhi $21
  4037bc:	00 15 00 00 
  4037c0:	45 00 00 00 	subu $2,$3,$21
  4037c4:	00 02 15 03 
  4037c8:	34 00 00 00 	sw $2,64($16)
  4037cc:	40 00 02 10 
  4037d0:	28 00 00 00 	lw $19,-32592($28)
  4037d4:	b0 80 13 1c 
  4037d8:	42 00 00 00 	addu $4,$0,$16
  4037dc:	00 04 10 00 
  4037e0:	02 00 00 00 	jal 402bc8 <__stdio_check_offset>
  4037e4:	f2 0a 10 00 
  4037e8:	43 00 00 00 	addiu $3,$0,-1
  4037ec:	ff ff 03 00 
  4037f0:	06 00 00 00 	bne $2,$3,403820 <fillbuf+0x1b0>
  4037f4:	0a 00 03 02 
  4037f8:	28 00 00 00 	lw $3,-32592($28)
  4037fc:	b0 80 03 1c 
  403800:	43 00 00 00 	addiu $2,$0,29
  403804:	1d 00 02 00 
  403808:	06 00 00 00 	bne $3,$2,4038c0 <fillbuf+0x250>
  40380c:	2c 00 02 03 
  403810:	34 00 00 00 	sw $19,-32592($28)
  403814:	b0 80 13 1c 
  403818:	01 00 00 00 	j 4038d8 <fillbuf+0x268>
  40381c:	36 0e 10 00 
  403820:	28 00 00 00 	lw $3,64($16)
  403824:	40 00 03 10 
  403828:	28 00 00 00 	lw $2,60($16)
  40382c:	3c 00 02 10 
  403830:	05 00 00 00 	beq $3,$2,4038d8 <fillbuf+0x268>
  403834:	28 00 02 03 
  403838:	28 00 00 00 	lw $2,40($16)
  40383c:	28 00 02 10 
  403840:	06 00 00 00 	bne $2,$0,403868 <fillbuf+0x1f8>
  403844:	08 00 00 02 
  403848:	28 00 00 00 	lw $2,76($16)
  40384c:	4c 00 02 10 
  403850:	43 00 00 00 	addiu $3,$0,29
  403854:	1d 00 03 00 
  403858:	34 00 00 00 	sw $3,-32592($28)
  40385c:	b0 80 03 1c 
  403860:	01 00 00 00 	j 4038c8 <fillbuf+0x258>
  403864:	32 0e 10 00 
  403868:	28 00 00 00 	lw $4,24($16)
  40386c:	18 00 04 10 
  403870:	28 00 00 00 	lw $2,40($16)
  403874:	28 00 02 10 
  403878:	43 00 00 00 	addiu $5,$29,24
  40387c:	18 00 05 1d 
  403880:	42 00 00 00 	addu $6,$0,$0
  403884:	00 06 00 00 
  403888:	34 00 00 00 	sw $3,24($29)
  40388c:	18 00 03 1d 
  403890:	04 00 00 00 	jalr $31,$2
  403894:	00 1f 00 02 
  403898:	09 00 00 00 	bltz $2,4038c0 <fillbuf+0x250>
  40389c:	08 00 00 02 
  4038a0:	28 00 00 00 	lw $2,24($29)
  4038a4:	18 00 02 1d 
  4038a8:	28 00 00 00 	lw $3,64($16)
  4038ac:	40 00 03 10 
  4038b0:	34 00 00 00 	sw $2,60($16)
  4038b4:	3c 00 02 10 
  4038b8:	05 00 00 00 	beq $2,$3,4038d8 <fillbuf+0x268>
  4038bc:	06 00 03 02 
  4038c0:	28 00 00 00 	lw $2,76($16)
  4038c4:	4c 00 02 10 
  4038c8:	51 00 00 00 	ori $2,$2,1024
  4038cc:	00 04 02 02 
  4038d0:	34 00 00 00 	sw $2,76($16)
  4038d4:	4c 00 02 10 
  4038d8:	28 00 00 00 	lw $2,76($16)
  4038dc:	4c 00 02 10 
  4038e0:	34 00 00 00 	sw $22,-32592($28)
  4038e4:	b0 80 16 1c 
  4038e8:	4f 00 00 00 	andi $2,$2,1536
  4038ec:	00 06 02 02 
  4038f0:	06 00 00 00 	bne $2,$0,4039d0 <fillbuf+0x360>
  4038f4:	36 00 00 02 
  4038f8:	5d 00 00 00 	sltu $2,$21,$20
  4038fc:	00 02 14 15 
  403900:	06 00 00 00 	bne $2,$0,4039d0 <fillbuf+0x360>
  403904:	32 00 00 02 
  403908:	28 00 00 00 	lw $4,24($16)
  40390c:	18 00 04 10 
  403910:	28 00 00 00 	lw $2,32($16)
  403914:	20 00 02 10 
  403918:	42 00 00 00 	addu $5,$0,$18
  40391c:	00 05 12 00 
  403920:	42 00 00 00 	addu $6,$0,$17
  403924:	00 06 11 00 
  403928:	04 00 00 00 	jalr $31,$2
  40392c:	00 1f 00 02 
  403930:	42 00 00 00 	addu $3,$0,$2
  403934:	00 03 02 00 
  403938:	06 00 00 00 	bne $3,$0,403960 <fillbuf+0x2f0>
  40393c:	08 00 00 03 
  403940:	28 00 00 00 	lw $2,76($16)
  403944:	4c 00 02 10 
  403948:	51 00 00 00 	ori $2,$2,512
  40394c:	00 02 02 02 
  403950:	34 00 00 00 	sw $2,76($16)
  403954:	4c 00 02 10 
  403958:	01 00 00 00 	j 4039b8 <fillbuf+0x348>
  40395c:	6e 0e 10 00 
  403960:	0a 00 00 00 	bgez $3,403988 <fillbuf+0x318>
  403964:	08 00 00 03 
  403968:	28 00 00 00 	lw $2,76($16)
  40396c:	4c 00 02 10 
  403970:	51 00 00 00 	ori $2,$2,1024
  403974:	00 04 02 02 
  403978:	34 00 00 00 	sw $2,76($16)
  40397c:	4c 00 02 10 
  403980:	01 00 00 00 	j 4039b8 <fillbuf+0x348>
  403984:	6e 0e 10 00 
  403988:	42 00 00 00 	addu $18,$18,$3
  40398c:	00 12 03 12 
  403990:	28 00 00 00 	lw $2,60($16)
  403994:	3c 00 02 10 
  403998:	42 00 00 00 	addu $20,$20,$3
  40399c:	00 14 03 14 
  4039a0:	45 00 00 00 	subu $17,$17,$3
  4039a4:	00 11 03 11 
  4039a8:	42 00 00 00 	addu $2,$3,$2
  4039ac:	00 02 02 03 
  4039b0:	34 00 00 00 	sw $2,60($16)
  4039b4:	3c 00 02 10 
  4039b8:	28 00 00 00 	lw $2,76($16)
  4039bc:	4c 00 02 10 
  4039c0:	4f 00 00 00 	andi $2,$2,1536
  4039c4:	00 06 02 02 
  4039c8:	05 00 00 00 	beq $2,$0,4038f8 <fillbuf+0x288>
  4039cc:	ca ff 00 02 
  4039d0:	28 00 00 00 	lw $2,16($16)
  4039d4:	10 00 02 10 
  4039d8:	06 00 00 00 	bne $2,$0,403a18 <fillbuf+0x3a8>
  4039dc:	0e 00 00 02 
  4039e0:	28 00 00 00 	lw $2,76($16)
  4039e4:	4c 00 02 10 
  4039e8:	43 00 00 00 	addiu $3,$0,-1
  4039ec:	ff ff 03 00 
  4039f0:	4f 00 00 00 	andi $2,$2,1536
  4039f4:	00 06 02 02 
  4039f8:	06 00 00 00 	bne $2,$0,403a08 <fillbuf+0x398>
  4039fc:	02 00 00 02 
  403a00:	22 00 00 00 	lbu $3,16($29)
  403a04:	10 00 03 1d 
  403a08:	42 00 00 00 	addu $2,$0,$3
  403a0c:	00 02 03 00 
  403a10:	01 00 00 00 	j 403ab0 <fillbuf+0x440>
  403a14:	ac 0e 10 00 
  403a18:	42 00 00 00 	addu $2,$21,$2
  403a1c:	00 02 02 15 
  403a20:	34 00 00 00 	sw $2,4($16)
  403a24:	04 00 02 10 
  403a28:	28 00 00 00 	lw $2,76($16)
  403a2c:	4c 00 02 10 
  403a30:	4f 00 00 00 	andi $2,$2,1536
  403a34:	00 06 02 02 
  403a38:	06 00 00 00 	bne $2,$0,403a90 <fillbuf+0x420>
  403a3c:	14 00 00 02 
  403a40:	28 00 00 00 	lw $2,16($16)
  403a44:	10 00 02 10 
  403a48:	28 00 00 00 	lw $3,16($16)
  403a4c:	10 00 03 10 
  403a50:	28 00 00 00 	lw $4,4($16)
  403a54:	04 00 04 10 
  403a58:	42 00 00 00 	addu $2,$20,$2
  403a5c:	00 02 02 14 
  403a60:	34 00 00 00 	sw $2,8($16)
  403a64:	08 00 02 10 
  403a68:	43 00 00 00 	addiu $2,$4,1
  403a6c:	01 00 02 04 
  403a70:	34 00 00 00 	sw $3,12($16)
  403a74:	0c 00 03 10 
  403a78:	34 00 00 00 	sw $2,4($16)
  403a7c:	04 00 02 10 
  403a80:	22 00 00 00 	lbu $2,0($4)
  403a84:	00 00 02 04 
  403a88:	01 00 00 00 	j 403ab0 <fillbuf+0x440>
  403a8c:	ac 0e 10 00 
  403a90:	28 00 00 00 	lw $3,16($16)
  403a94:	10 00 03 10 
  403a98:	43 00 00 00 	addiu $2,$0,-1
  403a9c:	ff ff 02 00 
  403aa0:	34 00 00 00 	sw $3,8($16)
  403aa4:	08 00 03 10 
  403aa8:	34 00 00 00 	sw $3,12($16)
  403aac:	0c 00 03 10 
  403ab0:	28 00 00 00 	lw $31,60($29)
  403ab4:	3c 00 1f 1d 
  403ab8:	28 00 00 00 	lw $22,56($29)
  403abc:	38 00 16 1d 
  403ac0:	28 00 00 00 	lw $21,52($29)
  403ac4:	34 00 15 1d 
  403ac8:	28 00 00 00 	lw $20,48($29)
  403acc:	30 00 14 1d 
  403ad0:	28 00 00 00 	lw $19,44($29)
  403ad4:	2c 00 13 1d 
  403ad8:	28 00 00 00 	lw $18,40($29)
  403adc:	28 00 12 1d 
  403ae0:	28 00 00 00 	lw $17,36($29)
  403ae4:	24 00 11 1d 
  403ae8:	28 00 00 00 	lw $16,32($29)
  403aec:	20 00 10 1d 
  403af0:	43 00 00 00 	addiu $29,$29,64
  403af4:	40 00 1d 1d 
  403af8:	03 00 00 00 	jr $31
  403afc:	00 00 00 1f 

00403b00 <__flshfp>:
  403b00:	43 00 00 00 	addiu $29,$29,-40
  403b04:	d8 ff 1d 1d 
  403b08:	34 00 00 00 	sw $16,16($29)
  403b0c:	10 00 10 1d 
  403b10:	42 00 00 00 	addu $16,$0,$4
  403b14:	00 10 04 00 
  403b18:	34 00 00 00 	sw $18,24($29)
  403b1c:	18 00 12 1d 
  403b20:	42 00 00 00 	addu $18,$0,$5
  403b24:	00 12 05 00 
  403b28:	54 00 00 00 	nor $2,$0,$18
  403b2c:	00 02 12 00 
  403b30:	34 00 00 00 	sw $19,28($29)
  403b34:	1c 00 13 1d 
  403b38:	5e 00 00 00 	sltiu $19,$2,1
  403b3c:	01 00 13 02 
  403b40:	34 00 00 00 	sw $31,32($29)
  403b44:	20 00 1f 1d 
  403b48:	34 00 00 00 	sw $17,20($29)
  403b4c:	14 00 11 1d 
  403b50:	05 00 00 00 	beq $16,$0,403bc0 <__flshfp+0xc0>
  403b54:	1a 00 00 10 
  403b58:	28 00 00 00 	lw $3,0($16)
  403b5c:	00 00 03 10 
  403b60:	a2 00 00 00 	lui $2,65261
  403b64:	ed fe 02 00 
  403b68:	51 00 00 00 	ori $2,$2,47806
  403b6c:	be ba 02 02 
  403b70:	06 00 00 00 	bne $3,$2,403b88 <__flshfp+0x88>
  403b74:	04 00 02 03 
  403b78:	28 00 00 00 	lw $2,4($16)
  403b7c:	04 00 02 10 
  403b80:	28 00 00 00 	lw $16,0($2)
  403b84:	00 00 10 02 
  403b88:	28 00 00 00 	lw $3,0($16)
  403b8c:	00 00 03 10 
  403b90:	a2 00 00 00 	lui $2,65242
  403b94:	da fe 02 00 
  403b98:	51 00 00 00 	ori $2,$2,48875
  403b9c:	eb be 02 02 
  403ba0:	06 00 00 00 	bne $3,$2,403bc0 <__flshfp+0xc0>
  403ba4:	06 00 02 03 
  403ba8:	28 00 00 00 	lw $2,28($16)
  403bac:	1c 00 02 10 
  403bb0:	4f 00 00 00 	andi $2,$2,2
  403bb4:	02 00 02 02 
  403bb8:	06 00 00 00 	bne $2,$0,403be0 <__flshfp+0xe0>
  403bbc:	08 00 00 02 
  403bc0:	43 00 00 00 	addiu $2,$0,22
  403bc4:	16 00 02 00 
  403bc8:	34 00 00 00 	sw $2,-32592($28)
  403bcc:	b0 80 02 1c 
  403bd0:	43 00 00 00 	addiu $2,$0,-1
  403bd4:	ff ff 02 00 
  403bd8:	01 00 00 00 	j 404000 <__flshfp+0x500>
  403bdc:	00 10 10 00 
  403be0:	28 00 00 00 	lw $3,76($16)
  403be4:	4c 00 03 10 
  403be8:	4f 00 00 00 	andi $2,$3,1024
  403bec:	00 04 02 03 
  403bf0:	06 00 00 00 	bne $2,$0,403bd0 <__flshfp+0xd0>
  403bf4:	f6 ff 00 02 
  403bf8:	4f 00 00 00 	andi $2,$3,256
  403bfc:	00 01 02 03 
  403c00:	05 00 00 00 	beq $2,$0,403c38 <__flshfp+0x138>
  403c04:	0c 00 00 02 
  403c08:	28 00 00 00 	lw $2,72($16)
  403c0c:	48 00 02 10 
  403c10:	28 00 00 00 	lw $3,76($16)
  403c14:	4c 00 03 10 
  403c18:	34 00 00 00 	sw $2,4($16)
  403c1c:	04 00 02 10 
  403c20:	43 00 00 00 	addiu $2,$0,-257
  403c24:	ff fe 02 00 
  403c28:	4e 00 00 00 	and $3,$3,$2
  403c2c:	00 03 02 03 
  403c30:	34 00 00 00 	sw $3,76($16)
  403c34:	4c 00 03 10 
  403c38:	28 00 00 00 	lw $2,76($16)
  403c3c:	4c 00 02 10 
  403c40:	4f 00 00 00 	andi $2,$2,16384
  403c44:	00 40 02 02 
  403c48:	06 00 00 00 	bne $2,$0,403d00 <__flshfp+0x200>
  403c4c:	2c 00 00 02 
  403c50:	28 00 00 00 	lw $2,-32656($28)
  403c54:	70 80 02 1c 
  403c58:	a2 00 00 00 	lui $3,4096
  403c5c:	00 10 03 00 
  403c60:	28 00 00 00 	lw $3,852($3)
  403c64:	54 03 03 03 
  403c68:	34 00 00 00 	sw $2,52($16)
  403c6c:	34 00 02 10 
  403c70:	34 00 00 00 	sw $3,56($16)
  403c74:	38 00 03 10 
  403c78:	a2 00 00 00 	lui $5,4096
  403c7c:	00 10 05 00 
  403c80:	43 00 00 00 	addiu $5,$5,0
  403c84:	00 00 05 05 
  403c88:	28 00 00 00 	lw $2,0($5)
  403c8c:	00 00 02 05 
  403c90:	28 00 00 00 	lw $3,4($5)
  403c94:	04 00 03 05 
  403c98:	28 00 00 00 	lw $4,8($5)
  403c9c:	08 00 04 05 
  403ca0:	34 00 00 00 	sw $2,32($16)
  403ca4:	20 00 02 10 
  403ca8:	34 00 00 00 	sw $3,36($16)
  403cac:	24 00 03 10 
  403cb0:	34 00 00 00 	sw $4,40($16)
  403cb4:	28 00 04 10 
  403cb8:	28 00 00 00 	lw $2,12($5)
  403cbc:	0c 00 02 05 
  403cc0:	28 00 00 00 	lw $3,16($5)
  403cc4:	10 00 03 05 
  403cc8:	34 00 00 00 	sw $2,44($16)
  403ccc:	2c 00 02 10 
  403cd0:	34 00 00 00 	sw $3,48($16)
  403cd4:	30 00 03 10 
  403cd8:	42 00 00 00 	addu $4,$0,$16
  403cdc:	00 04 10 00 
  403ce0:	02 00 00 00 	jal 405560 <__stdio_init_stream>
  403ce4:	58 15 10 00 
  403ce8:	28 00 00 00 	lw $2,76($16)
  403cec:	4c 00 02 10 
  403cf0:	51 00 00 00 	ori $2,$2,16384
  403cf4:	00 40 02 02 
  403cf8:	34 00 00 00 	sw $2,76($16)
  403cfc:	4c 00 02 10 
  403d00:	28 00 00 00 	lw $2,16($16)
  403d04:	10 00 02 10 
  403d08:	06 00 00 00 	bne $2,$0,403de8 <__flshfp+0x2e8>
  403d0c:	36 00 00 02 
  403d10:	28 00 00 00 	lw $2,76($16)
  403d14:	4c 00 02 10 
  403d18:	4f 00 00 00 	andi $2,$2,2048
  403d1c:	00 08 02 02 
  403d20:	06 00 00 00 	bne $2,$0,403de8 <__flshfp+0x2e8>
  403d24:	30 00 00 02 
  403d28:	28 00 00 00 	lw $2,20($16)
  403d2c:	14 00 02 10 
  403d30:	06 00 00 00 	bne $2,$0,403d48 <__flshfp+0x248>
  403d34:	04 00 00 02 
  403d38:	43 00 00 00 	addiu $2,$0,1024
  403d3c:	00 04 02 00 
  403d40:	34 00 00 00 	sw $2,20($16)
  403d44:	14 00 02 10 
  403d48:	28 00 00 00 	lw $4,20($16)
  403d4c:	14 00 04 10 
  403d50:	28 00 00 00 	lw $17,-32592($28)
  403d54:	b0 80 11 1c 
  403d58:	5e 00 00 00 	sltiu $2,$4,128
  403d5c:	80 00 02 04 
  403d60:	06 00 00 00 	bne $2,$0,403db0 <__flshfp+0x2b0>
  403d64:	12 00 00 02 
  403d68:	02 00 00 00 	jal 400f78 <malloc>
  403d6c:	de 03 10 00 
  403d70:	34 00 00 00 	sw $2,16($16)
  403d74:	10 00 02 10 
  403d78:	06 00 00 00 	bne $2,$0,403db0 <__flshfp+0x2b0>
  403d7c:	0c 00 00 02 
  403d80:	28 00 00 00 	lw $2,20($16)
  403d84:	14 00 02 10 
  403d88:	57 00 00 00 	srl $2,$2,0x1
  403d8c:	01 02 02 00 
  403d90:	42 00 00 00 	addu $4,$0,$2
  403d94:	00 04 02 00 
  403d98:	5e 00 00 00 	sltiu $2,$4,128
  403d9c:	80 00 02 04 
  403da0:	34 00 00 00 	sw $4,20($16)
  403da4:	14 00 04 10 
  403da8:	05 00 00 00 	beq $2,$0,403d68 <__flshfp+0x268>
  403dac:	ee ff 00 02 
  403db0:	28 00 00 00 	lw $2,16($16)
  403db4:	10 00 02 10 
  403db8:	34 00 00 00 	sw $17,-32592($28)
  403dbc:	b0 80 11 1c 
  403dc0:	06 00 00 00 	bne $2,$0,403de8 <__flshfp+0x2e8>
  403dc4:	08 00 00 02 
  403dc8:	28 00 00 00 	lw $2,76($16)
  403dcc:	4c 00 02 10 
  403dd0:	34 00 00 00 	sw $0,20($16)
  403dd4:	14 00 00 10 
  403dd8:	51 00 00 00 	ori $2,$2,2048
  403ddc:	00 08 02 02 
  403de0:	34 00 00 00 	sw $2,76($16)
  403de4:	4c 00 02 10 
  403de8:	28 00 00 00 	lw $2,4($16)
  403dec:	04 00 02 10 
  403df0:	06 00 00 00 	bne $2,$0,403e20 <__flshfp+0x320>
  403df4:	0a 00 00 02 
  403df8:	28 00 00 00 	lw $2,16($16)
  403dfc:	10 00 02 10 
  403e00:	28 00 00 00 	lw $3,16($16)
  403e04:	10 00 03 10 
  403e08:	34 00 00 00 	sw $2,4($16)
  403e0c:	04 00 02 10 
  403e10:	34 00 00 00 	sw $3,8($16)
  403e14:	08 00 03 10 
  403e18:	34 00 00 00 	sw $3,12($16)
  403e1c:	0c 00 03 10 
  403e20:	28 00 00 00 	lw $2,56($16)
  403e24:	38 00 02 10 
  403e28:	06 00 00 00 	bne $2,$0,403e58 <__flshfp+0x358>
  403e2c:	0a 00 00 02 
  403e30:	28 00 00 00 	lw $3,76($16)
  403e34:	4c 00 03 10 
  403e38:	43 00 00 00 	addiu $2,$0,-1
  403e3c:	ff ff 02 00 
  403e40:	51 00 00 00 	ori $3,$3,1024
  403e44:	00 04 03 03 
  403e48:	34 00 00 00 	sw $3,76($16)
  403e4c:	4c 00 03 10 
  403e50:	01 00 00 00 	j 404000 <__flshfp+0x500>
  403e54:	00 10 10 00 
  403e58:	06 00 00 00 	bne $19,$0,403f20 <__flshfp+0x420>
  403e5c:	30 00 00 13 
  403e60:	28 00 00 00 	lw $2,76($16)
  403e64:	4c 00 02 10 
  403e68:	28 00 00 00 	lw $4,4($16)
  403e6c:	04 00 04 10 
  403e70:	4f 00 00 00 	andi $2,$2,8192
  403e74:	00 20 02 02 
  403e78:	05 00 00 00 	beq $2,$0,403eb0 <__flshfp+0x3b0>
  403e7c:	0c 00 00 02 
  403e80:	28 00 00 00 	lw $2,16($16)
  403e84:	10 00 02 10 
  403e88:	28 00 00 00 	lw $3,20($16)
  403e8c:	14 00 03 10 
  403e90:	42 00 00 00 	addu $2,$2,$3
  403e94:	00 02 03 02 
  403e98:	5d 00 00 00 	sltu $2,$4,$2
  403e9c:	00 02 02 04 
  403ea0:	06 00 00 00 	bne $2,$0,403ec8 <__flshfp+0x3c8>
  403ea4:	08 00 00 02 
  403ea8:	01 00 00 00 	j 403f20 <__flshfp+0x420>
  403eac:	c8 0f 10 00 
  403eb0:	28 00 00 00 	lw $2,12($16)
  403eb4:	0c 00 02 10 
  403eb8:	5d 00 00 00 	sltu $2,$4,$2
  403ebc:	00 02 02 04 
  403ec0:	05 00 00 00 	beq $2,$0,403f20 <__flshfp+0x420>
  403ec4:	16 00 00 02 
  403ec8:	28 00 00 00 	lw $3,4($16)
  403ecc:	04 00 03 10 
  403ed0:	43 00 00 00 	addiu $2,$3,1
  403ed4:	01 00 02 03 
  403ed8:	34 00 00 00 	sw $2,4($16)
  403edc:	04 00 02 10 
  403ee0:	30 00 00 00 	sb $18,0($3)
  403ee4:	00 00 12 03 
  403ee8:	28 00 00 00 	lw $2,76($16)
  403eec:	4c 00 02 10 
  403ef0:	4f 00 00 00 	andi $2,$2,4096
  403ef4:	00 10 02 02 
  403ef8:	05 00 00 00 	beq $2,$0,403fe8 <__flshfp+0x4e8>
  403efc:	3a 00 00 02 
  403f00:	4f 00 00 00 	andi $3,$18,255
  403f04:	ff 00 03 12 
  403f08:	43 00 00 00 	addiu $2,$0,10
  403f0c:	0a 00 02 00 
  403f10:	06 00 00 00 	bne $3,$2,403fe8 <__flshfp+0x4e8>
  403f14:	34 00 02 03 
  403f18:	43 00 00 00 	addiu $19,$0,1
  403f1c:	01 00 13 00 
  403f20:	28 00 00 00 	lw $2,76($16)
  403f24:	4c 00 02 10 
  403f28:	4f 00 00 00 	andi $2,$2,8192
  403f2c:	00 20 02 02 
  403f30:	05 00 00 00 	beq $2,$0,403f58 <__flshfp+0x458>
  403f34:	08 00 00 02 
  403f38:	28 00 00 00 	lw $2,16($16)
  403f3c:	10 00 02 10 
  403f40:	28 00 00 00 	lw $3,20($16)
  403f44:	14 00 03 10 
  403f48:	42 00 00 00 	addu $2,$2,$3
  403f4c:	00 02 03 02 
  403f50:	34 00 00 00 	sw $2,12($16)
  403f54:	0c 00 02 10 
  403f58:	43 00 00 00 	addiu $5,$0,-1
  403f5c:	ff ff 05 00 
  403f60:	06 00 00 00 	bne $19,$0,403f70 <__flshfp+0x470>
  403f64:	02 00 00 13 
  403f68:	4f 00 00 00 	andi $5,$18,255
  403f6c:	ff 00 05 12 
  403f70:	28 00 00 00 	lw $2,56($16)
  403f74:	38 00 02 10 
  403f78:	42 00 00 00 	addu $4,$0,$16
  403f7c:	00 04 10 00 
  403f80:	04 00 00 00 	jalr $31,$2
  403f84:	00 1f 00 02 
  403f88:	28 00 00 00 	lw $2,76($16)
  403f8c:	4c 00 02 10 
  403f90:	4f 00 00 00 	andi $2,$2,4096
  403f94:	00 10 02 02 
  403f98:	05 00 00 00 	beq $2,$0,403fc8 <__flshfp+0x4c8>
  403f9c:	0a 00 00 02 
  403fa0:	28 00 00 00 	lw $2,76($16)
  403fa4:	4c 00 02 10 
  403fa8:	28 00 00 00 	lw $3,16($16)
  403fac:	10 00 03 10 
  403fb0:	51 00 00 00 	ori $2,$2,8192
  403fb4:	00 20 02 02 
  403fb8:	34 00 00 00 	sw $3,12($16)
  403fbc:	0c 00 03 10 
  403fc0:	34 00 00 00 	sw $2,76($16)
  403fc4:	4c 00 02 10 
  403fc8:	28 00 00 00 	lw $2,76($16)
  403fcc:	4c 00 02 10 
  403fd0:	4f 00 00 00 	andi $2,$2,1024
  403fd4:	00 04 02 02 
  403fd8:	06 00 00 00 	bne $2,$0,403bd0 <__flshfp+0xd0>
  403fdc:	fc fe 00 02 
  403fe0:	06 00 00 00 	bne $19,$0,403ff8 <__flshfp+0x4f8>
  403fe4:	04 00 00 13 
  403fe8:	4f 00 00 00 	andi $2,$18,255
  403fec:	ff 00 02 12 
  403ff0:	01 00 00 00 	j 404000 <__flshfp+0x500>
  403ff4:	00 10 10 00 
  403ff8:	42 00 00 00 	addu $2,$0,$0
  403ffc:	00 02 00 00 
  404000:	28 00 00 00 	lw $31,32($29)
  404004:	20 00 1f 1d 
  404008:	28 00 00 00 	lw $19,28($29)
  40400c:	1c 00 13 1d 
  404010:	28 00 00 00 	lw $18,24($29)
  404014:	18 00 12 1d 
  404018:	28 00 00 00 	lw $17,20($29)
  40401c:	14 00 11 1d 
  404020:	28 00 00 00 	lw $16,16($29)
  404024:	10 00 10 1d 
  404028:	43 00 00 00 	addiu $29,$29,40
  40402c:	28 00 1d 1d 
  404030:	03 00 00 00 	jr $31
  404034:	00 00 00 1f 

00404038 <__fillbf>:
  404038:	43 00 00 00 	addiu $29,$29,-40
  40403c:	d8 ff 1d 1d 
  404040:	34 00 00 00 	sw $17,20($29)
  404044:	14 00 11 1d 
  404048:	42 00 00 00 	addu $17,$0,$4
  40404c:	00 11 04 00 
  404050:	34 00 00 00 	sw $31,32($29)
  404054:	20 00 1f 1d 
  404058:	34 00 00 00 	sw $19,28($29)
  40405c:	1c 00 13 1d 
  404060:	34 00 00 00 	sw $18,24($29)
  404064:	18 00 12 1d 
  404068:	34 00 00 00 	sw $16,16($29)
  40406c:	10 00 10 1d 
  404070:	05 00 00 00 	beq $17,$0,4040e0 <__fillbf+0xa8>
  404074:	1a 00 00 11 
  404078:	28 00 00 00 	lw $3,0($17)
  40407c:	00 00 03 11 
  404080:	a2 00 00 00 	lui $2,65261
  404084:	ed fe 02 00 
  404088:	51 00 00 00 	ori $2,$2,47806
  40408c:	be ba 02 02 
  404090:	06 00 00 00 	bne $3,$2,4040a8 <__fillbf+0x70>
  404094:	04 00 02 03 
  404098:	28 00 00 00 	lw $2,4($17)
  40409c:	04 00 02 11 
  4040a0:	28 00 00 00 	lw $17,0($2)
  4040a4:	00 00 11 02 
  4040a8:	28 00 00 00 	lw $3,0($17)
  4040ac:	00 00 03 11 
  4040b0:	a2 00 00 00 	lui $2,65242
  4040b4:	da fe 02 00 
  4040b8:	51 00 00 00 	ori $2,$2,48875
  4040bc:	eb be 02 02 
  4040c0:	06 00 00 00 	bne $3,$2,4040e0 <__fillbf+0xa8>
  4040c4:	06 00 02 03 
  4040c8:	28 00 00 00 	lw $2,28($17)
  4040cc:	1c 00 02 11 
  4040d0:	4f 00 00 00 	andi $2,$2,1
  4040d4:	01 00 02 02 
  4040d8:	06 00 00 00 	bne $2,$0,404100 <__fillbf+0xc8>
  4040dc:	08 00 00 02 
  4040e0:	43 00 00 00 	addiu $2,$0,22
  4040e4:	16 00 02 00 
  4040e8:	34 00 00 00 	sw $2,-32592($28)
  4040ec:	b0 80 02 1c 
  4040f0:	43 00 00 00 	addiu $2,$0,-1
  4040f4:	ff ff 02 00 
  4040f8:	01 00 00 00 	j 404590 <__fillbf+0x558>
  4040fc:	64 11 10 00 
  404100:	28 00 00 00 	lw $3,76($17)
  404104:	4c 00 03 11 
  404108:	4f 00 00 00 	andi $2,$3,256
  40410c:	00 01 02 03 
  404110:	05 00 00 00 	beq $2,$0,404158 <__fillbf+0x120>
  404114:	10 00 00 02 
  404118:	28 00 00 00 	lw $2,76($17)
  40411c:	4c 00 02 11 
  404120:	43 00 00 00 	addiu $3,$0,-257
  404124:	ff fe 03 00 
  404128:	4e 00 00 00 	and $2,$2,$3
  40412c:	00 02 03 02 
  404130:	28 00 00 00 	lw $3,72($17)
  404134:	48 00 03 11 
  404138:	34 00 00 00 	sw $2,76($17)
  40413c:	4c 00 02 11 
  404140:	22 00 00 00 	lbu $2,76($17)
  404144:	4c 00 02 11 
  404148:	34 00 00 00 	sw $3,4($17)
  40414c:	04 00 03 11 
  404150:	01 00 00 00 	j 404590 <__fillbf+0x558>
  404154:	64 11 10 00 
  404158:	4f 00 00 00 	andi $2,$3,16384
  40415c:	00 40 02 03 
  404160:	06 00 00 00 	bne $2,$0,404218 <__fillbf+0x1e0>
  404164:	2c 00 00 02 
  404168:	28 00 00 00 	lw $2,-32656($28)
  40416c:	70 80 02 1c 
  404170:	a2 00 00 00 	lui $3,4096
  404174:	00 10 03 00 
  404178:	28 00 00 00 	lw $3,852($3)
  40417c:	54 03 03 03 
  404180:	34 00 00 00 	sw $2,52($17)
  404184:	34 00 02 11 
  404188:	34 00 00 00 	sw $3,56($17)
  40418c:	38 00 03 11 
  404190:	a2 00 00 00 	lui $5,4096
  404194:	00 10 05 00 
  404198:	43 00 00 00 	addiu $5,$5,0
  40419c:	00 00 05 05 
  4041a0:	28 00 00 00 	lw $2,0($5)
  4041a4:	00 00 02 05 
  4041a8:	28 00 00 00 	lw $3,4($5)
  4041ac:	04 00 03 05 
  4041b0:	28 00 00 00 	lw $4,8($5)
  4041b4:	08 00 04 05 
  4041b8:	34 00 00 00 	sw $2,32($17)
  4041bc:	20 00 02 11 
  4041c0:	34 00 00 00 	sw $3,36($17)
  4041c4:	24 00 03 11 
  4041c8:	34 00 00 00 	sw $4,40($17)
  4041cc:	28 00 04 11 
  4041d0:	28 00 00 00 	lw $2,12($5)
  4041d4:	0c 00 02 05 
  4041d8:	28 00 00 00 	lw $3,16($5)
  4041dc:	10 00 03 05 
  4041e0:	34 00 00 00 	sw $2,44($17)
  4041e4:	2c 00 02 11 
  4041e8:	34 00 00 00 	sw $3,48($17)
  4041ec:	30 00 03 11 
  4041f0:	42 00 00 00 	addu $4,$0,$17
  4041f4:	00 04 11 00 
  4041f8:	02 00 00 00 	jal 405560 <__stdio_init_stream>
  4041fc:	58 15 10 00 
  404200:	28 00 00 00 	lw $2,76($17)
  404204:	4c 00 02 11 
  404208:	51 00 00 00 	ori $2,$2,16384
  40420c:	00 40 02 02 
  404210:	34 00 00 00 	sw $2,76($17)
  404214:	4c 00 02 11 
  404218:	28 00 00 00 	lw $2,16($17)
  40421c:	10 00 02 11 
  404220:	06 00 00 00 	bne $2,$0,404300 <__fillbf+0x2c8>
  404224:	36 00 00 02 
  404228:	28 00 00 00 	lw $2,76($17)
  40422c:	4c 00 02 11 
  404230:	4f 00 00 00 	andi $2,$2,2048
  404234:	00 08 02 02 
  404238:	06 00 00 00 	bne $2,$0,404300 <__fillbf+0x2c8>
  40423c:	30 00 00 02 
  404240:	28 00 00 00 	lw $2,20($17)
  404244:	14 00 02 11 
  404248:	06 00 00 00 	bne $2,$0,404260 <__fillbf+0x228>
  40424c:	04 00 00 02 
  404250:	43 00 00 00 	addiu $2,$0,1024
  404254:	00 04 02 00 
  404258:	34 00 00 00 	sw $2,20($17)
  40425c:	14 00 02 11 
  404260:	28 00 00 00 	lw $4,20($17)
  404264:	14 00 04 11 
  404268:	28 00 00 00 	lw $16,-32592($28)
  40426c:	b0 80 10 1c 
  404270:	5e 00 00 00 	sltiu $2,$4,128
  404274:	80 00 02 04 
  404278:	06 00 00 00 	bne $2,$0,4042c8 <__fillbf+0x290>
  40427c:	12 00 00 02 
  404280:	02 00 00 00 	jal 400f78 <malloc>
  404284:	de 03 10 00 
  404288:	34 00 00 00 	sw $2,16($17)
  40428c:	10 00 02 11 
  404290:	06 00 00 00 	bne $2,$0,4042c8 <__fillbf+0x290>
  404294:	0c 00 00 02 
  404298:	28 00 00 00 	lw $2,20($17)
  40429c:	14 00 02 11 
  4042a0:	57 00 00 00 	srl $2,$2,0x1
  4042a4:	01 02 02 00 
  4042a8:	42 00 00 00 	addu $4,$0,$2
  4042ac:	00 04 02 00 
  4042b0:	5e 00 00 00 	sltiu $2,$4,128
  4042b4:	80 00 02 04 
  4042b8:	34 00 00 00 	sw $4,20($17)
  4042bc:	14 00 04 11 
  4042c0:	05 00 00 00 	beq $2,$0,404280 <__fillbf+0x248>
  4042c4:	ee ff 00 02 
  4042c8:	28 00 00 00 	lw $2,16($17)
  4042cc:	10 00 02 11 
  4042d0:	34 00 00 00 	sw $16,-32592($28)
  4042d4:	b0 80 10 1c 
  4042d8:	06 00 00 00 	bne $2,$0,404300 <__fillbf+0x2c8>
  4042dc:	08 00 00 02 
  4042e0:	28 00 00 00 	lw $2,76($17)
  4042e4:	4c 00 02 11 
  4042e8:	34 00 00 00 	sw $0,20($17)
  4042ec:	14 00 00 11 
  4042f0:	51 00 00 00 	ori $2,$2,2048
  4042f4:	00 08 02 02 
  4042f8:	34 00 00 00 	sw $2,76($17)
  4042fc:	4c 00 02 11 
  404300:	28 00 00 00 	lw $2,4($17)
  404304:	04 00 02 11 
  404308:	06 00 00 00 	bne $2,$0,404338 <__fillbf+0x300>
  40430c:	0a 00 00 02 
  404310:	28 00 00 00 	lw $2,16($17)
  404314:	10 00 02 11 
  404318:	28 00 00 00 	lw $3,16($17)
  40431c:	10 00 03 11 
  404320:	34 00 00 00 	sw $2,4($17)
  404324:	04 00 02 11 
  404328:	34 00 00 00 	sw $3,8($17)
  40432c:	08 00 03 11 
  404330:	34 00 00 00 	sw $3,12($17)
  404334:	0c 00 03 11 
  404338:	28 00 00 00 	lw $2,16($17)
  40433c:	10 00 02 11 
  404340:	05 00 00 00 	beq $2,$0,404360 <__fillbf+0x328>
  404344:	06 00 00 02 
  404348:	28 00 00 00 	lw $2,76($17)
  40434c:	4c 00 02 11 
  404350:	4f 00 00 00 	andi $2,$2,4096
  404354:	00 10 02 02 
  404358:	05 00 00 00 	beq $2,$0,404418 <__fillbf+0x3e0>
  40435c:	2e 00 00 02 
  404360:	28 00 00 00 	lw $16,-32692($28)
  404364:	4c 80 10 1c 
  404368:	05 00 00 00 	beq $16,$0,404418 <__fillbf+0x3e0>
  40436c:	2a 00 00 10 
  404370:	a2 00 00 00 	lui $19,65261
  404374:	ed fe 13 00 
  404378:	51 00 00 00 	ori $19,$19,47806
  40437c:	be ba 13 13 
  404380:	a2 00 00 00 	lui $18,65242
  404384:	da fe 12 00 
  404388:	51 00 00 00 	ori $18,$18,48875
  40438c:	eb be 12 12 
  404390:	28 00 00 00 	lw $2,0($16)
  404394:	00 00 02 10 
  404398:	06 00 00 00 	bne $2,$19,4043b0 <__fillbf+0x378>
  40439c:	04 00 13 02 
  4043a0:	28 00 00 00 	lw $2,4($16)
  4043a4:	04 00 02 10 
  4043a8:	28 00 00 00 	lw $16,0($2)
  4043ac:	00 00 10 02 
  4043b0:	28 00 00 00 	lw $2,0($16)
  4043b4:	00 00 02 10 
  4043b8:	06 00 00 00 	bne $2,$18,404408 <__fillbf+0x3d0>
  4043bc:	12 00 12 02 
  4043c0:	28 00 00 00 	lw $2,76($16)
  4043c4:	4c 00 02 10 
  4043c8:	4f 00 00 00 	andi $2,$2,4096
  4043cc:	00 10 02 02 
  4043d0:	05 00 00 00 	beq $2,$0,404408 <__fillbf+0x3d0>
  4043d4:	0c 00 00 02 
  4043d8:	28 00 00 00 	lw $2,28($16)
  4043dc:	1c 00 02 10 
  4043e0:	4f 00 00 00 	andi $2,$2,2
  4043e4:	02 00 02 02 
  4043e8:	05 00 00 00 	beq $2,$0,404408 <__fillbf+0x3d0>
  4043ec:	06 00 00 02 
  4043f0:	42 00 00 00 	addu $4,$0,$16
  4043f4:	00 04 10 00 
  4043f8:	43 00 00 00 	addiu $5,$0,-1
  4043fc:	ff ff 05 00 
  404400:	02 00 00 00 	jal 403b00 <__flshfp>
  404404:	c0 0e 10 00 
  404408:	28 00 00 00 	lw $16,68($16)
  40440c:	44 00 10 10 
  404410:	06 00 00 00 	bne $16,$0,404390 <__fillbf+0x358>
  404414:	de ff 00 10 
  404418:	28 00 00 00 	lw $2,76($17)
  40441c:	4c 00 02 11 
  404420:	4f 00 00 00 	andi $2,$2,8192
  404424:	00 20 02 02 
  404428:	05 00 00 00 	beq $2,$0,404470 <__fillbf+0x438>
  40442c:	10 00 00 02 
  404430:	28 00 00 00 	lw $2,16($17)
  404434:	10 00 02 11 
  404438:	28 00 00 00 	lw $4,20($17)
  40443c:	14 00 04 11 
  404440:	28 00 00 00 	lw $3,76($17)
  404444:	4c 00 03 11 
  404448:	42 00 00 00 	addu $2,$2,$4
  40444c:	00 02 04 02 
  404450:	34 00 00 00 	sw $2,12($17)
  404454:	0c 00 02 11 
  404458:	43 00 00 00 	addiu $2,$0,-8193
  40445c:	ff df 02 00 
  404460:	4e 00 00 00 	and $3,$3,$2
  404464:	00 03 02 03 
  404468:	34 00 00 00 	sw $3,76($17)
  40446c:	4c 00 03 11 
  404470:	28 00 00 00 	lw $3,8($17)
  404474:	08 00 03 11 
  404478:	28 00 00 00 	lw $2,16($17)
  40447c:	10 00 02 11 
  404480:	28 00 00 00 	lw $4,64($17)
  404484:	40 00 04 11 
  404488:	28 00 00 00 	lw $5,12($17)
  40448c:	0c 00 05 11 
  404490:	45 00 00 00 	subu $3,$3,$2
  404494:	00 03 02 03 
  404498:	42 00 00 00 	addu $16,$3,$4
  40449c:	00 10 04 03 
  4044a0:	5d 00 00 00 	sltu $2,$2,$5
  4044a4:	00 02 05 02 
  4044a8:	05 00 00 00 	beq $2,$0,4044f8 <__fillbf+0x4c0>
  4044ac:	12 00 00 02 
  4044b0:	28 00 00 00 	lw $2,56($17)
  4044b4:	38 00 02 11 
  4044b8:	06 00 00 00 	bne $2,$0,4044e0 <__fillbf+0x4a8>
  4044bc:	08 00 00 02 
  4044c0:	28 00 00 00 	lw $2,76($17)
  4044c4:	4c 00 02 11 
  4044c8:	51 00 00 00 	ori $2,$2,1024
  4044cc:	00 04 02 02 
  4044d0:	34 00 00 00 	sw $2,76($17)
  4044d4:	4c 00 02 11 
  4044d8:	01 00 00 00 	j 4044f8 <__fillbf+0x4c0>
  4044dc:	3e 11 10 00 
  4044e0:	42 00 00 00 	addu $4,$0,$17
  4044e4:	00 04 11 00 
  4044e8:	43 00 00 00 	addiu $5,$0,-1
  4044ec:	ff ff 05 00 
  4044f0:	04 00 00 00 	jalr $31,$2
  4044f4:	00 1f 00 02 
  4044f8:	28 00 00 00 	lw $3,76($17)
  4044fc:	4c 00 03 11 
  404500:	34 00 00 00 	sw $16,64($17)
  404504:	40 00 10 11 
  404508:	4f 00 00 00 	andi $2,$3,1024
  40450c:	00 04 02 03 
  404510:	06 00 00 00 	bne $2,$0,404580 <__fillbf+0x548>
  404514:	1a 00 00 02 
  404518:	28 00 00 00 	lw $2,52($17)
  40451c:	34 00 02 11 
  404520:	05 00 00 00 	beq $2,$0,404570 <__fillbf+0x538>
  404524:	12 00 00 02 
  404528:	42 00 00 00 	addu $4,$0,$17
  40452c:	00 04 11 00 
  404530:	04 00 00 00 	jalr $31,$2
  404534:	00 1f 00 02 
  404538:	28 00 00 00 	lw $3,16($17)
  40453c:	10 00 03 11 
  404540:	42 00 00 00 	addu $4,$0,$2
  404544:	00 04 02 00 
  404548:	06 00 00 00 	bne $3,$0,404588 <__fillbf+0x550>
  40454c:	0e 00 00 03 
  404550:	28 00 00 00 	lw $2,64($17)
  404554:	40 00 02 11 
  404558:	43 00 00 00 	addiu $2,$2,1
  40455c:	01 00 02 02 
  404560:	34 00 00 00 	sw $2,64($17)
  404564:	40 00 02 11 
  404568:	01 00 00 00 	j 404588 <__fillbf+0x550>
  40456c:	62 11 10 00 
  404570:	51 00 00 00 	ori $2,$3,512
  404574:	00 02 02 03 
  404578:	34 00 00 00 	sw $2,76($17)
  40457c:	4c 00 02 11 
  404580:	43 00 00 00 	addiu $4,$0,-1
  404584:	ff ff 04 00 
  404588:	42 00 00 00 	addu $2,$0,$4
  40458c:	00 02 04 00 
  404590:	28 00 00 00 	lw $31,32($29)
  404594:	20 00 1f 1d 
  404598:	28 00 00 00 	lw $19,28($29)
  40459c:	1c 00 13 1d 
  4045a0:	28 00 00 00 	lw $18,24($29)
  4045a4:	18 00 12 1d 
  4045a8:	28 00 00 00 	lw $17,20($29)
  4045ac:	14 00 11 1d 
  4045b0:	28 00 00 00 	lw $16,16($29)
  4045b4:	10 00 10 1d 
  4045b8:	43 00 00 00 	addiu $29,$29,40
  4045bc:	28 00 1d 1d 
  4045c0:	03 00 00 00 	jr $31
  4045c4:	00 00 00 1f 

004045c8 <__invalidate>:
  4045c8:	43 00 00 00 	addiu $29,$29,-32
  4045cc:	e0 ff 1d 1d 
  4045d0:	34 00 00 00 	sw $16,16($29)
  4045d4:	10 00 10 1d 
  4045d8:	42 00 00 00 	addu $16,$0,$4
  4045dc:	00 10 04 00 
  4045e0:	34 00 00 00 	sw $31,24($29)
  4045e4:	18 00 1f 1d 
  4045e8:	34 00 00 00 	sw $17,20($29)
  4045ec:	14 00 11 1d 
  4045f0:	28 00 00 00 	lw $17,68($16)
  4045f4:	44 00 11 10 
  4045f8:	42 00 00 00 	addu $5,$0,$0
  4045fc:	00 05 00 00 
  404600:	43 00 00 00 	addiu $6,$0,80
  404604:	50 00 06 00 
  404608:	02 00 00 00 	jal 401ca0 <memset>
  40460c:	28 07 10 00 
  404610:	34 00 00 00 	sw $17,68($16)
  404614:	44 00 11 10 
  404618:	28 00 00 00 	lw $31,24($29)
  40461c:	18 00 1f 1d 
  404620:	28 00 00 00 	lw $17,20($29)
  404624:	14 00 11 1d 
  404628:	28 00 00 00 	lw $16,16($29)
  40462c:	10 00 10 1d 
  404630:	43 00 00 00 	addiu $29,$29,32
  404634:	20 00 1d 1d 
  404638:	03 00 00 00 	jr $31
  40463c:	00 00 00 1f 

00404640 <__stdio_read>:
  404640:	43 00 00 00 	addiu $29,$29,-24
  404644:	e8 ff 1d 1d 
  404648:	34 00 00 00 	sw $31,16($29)
  40464c:	10 00 1f 1d 
  404650:	02 00 00 00 	jal 4056b0 <__read>
  404654:	ac 15 10 00 
  404658:	28 00 00 00 	lw $31,16($29)
  40465c:	10 00 1f 1d 
  404660:	43 00 00 00 	addiu $29,$29,24
  404664:	18 00 1d 1d 
  404668:	03 00 00 00 	jr $31
  40466c:	00 00 00 1f 

00404670 <__stdio_write>:
  404670:	43 00 00 00 	addiu $29,$29,-40
  404674:	d8 ff 1d 1d 
  404678:	34 00 00 00 	sw $17,20($29)
  40467c:	14 00 11 1d 
  404680:	42 00 00 00 	addu $17,$0,$5
  404684:	00 11 05 00 
  404688:	34 00 00 00 	sw $16,16($29)
  40468c:	10 00 10 1d 
  404690:	42 00 00 00 	addu $16,$0,$6
  404694:	00 10 06 00 
  404698:	34 00 00 00 	sw $18,24($29)
  40469c:	18 00 12 1d 
  4046a0:	42 00 00 00 	addu $18,$0,$0
  4046a4:	00 12 00 00 
  4046a8:	34 00 00 00 	sw $19,28($29)
  4046ac:	1c 00 13 1d 
  4046b0:	42 00 00 00 	addu $19,$0,$4
  4046b4:	00 13 04 00 
  4046b8:	34 00 00 00 	sw $31,32($29)
  4046bc:	20 00 1f 1d 
  4046c0:	05 00 00 00 	beq $16,$0,404728 <__stdio_write+0xb8>
  4046c4:	18 00 00 10 
  4046c8:	42 00 00 00 	addu $4,$0,$19
  4046cc:	00 04 13 00 
  4046d0:	42 00 00 00 	addu $5,$0,$17
  4046d4:	00 05 11 00 
  4046d8:	42 00 00 00 	addu $6,$0,$16
  4046dc:	00 06 10 00 
  4046e0:	02 00 00 00 	jal 4056f0 <__write>
  4046e4:	bc 15 10 00 
  4046e8:	08 00 00 00 	bgtz $2,404708 <__stdio_write+0x98>
  4046ec:	06 00 00 02 
  4046f0:	0a 00 00 00 	bgez $2,404720 <__stdio_write+0xb0>
  4046f4:	0a 00 00 02 
  4046f8:	43 00 00 00 	addiu $2,$0,-1
  4046fc:	ff ff 02 00 
  404700:	01 00 00 00 	j 404730 <__stdio_write+0xc0>
  404704:	cc 11 10 00 
  404708:	42 00 00 00 	addu $17,$17,$2
  40470c:	00 11 02 11 
  404710:	42 00 00 00 	addu $18,$18,$2
  404714:	00 12 02 12 
  404718:	45 00 00 00 	subu $16,$16,$2
  40471c:	00 10 02 10 
  404720:	06 00 00 00 	bne $16,$0,4046c8 <__stdio_write+0x58>
  404724:	e8 ff 00 10 
  404728:	42 00 00 00 	addu $2,$0,$18
  40472c:	00 02 12 00 
  404730:	28 00 00 00 	lw $31,32($29)
  404734:	20 00 1f 1d 
  404738:	28 00 00 00 	lw $19,28($29)
  40473c:	1c 00 13 1d 
  404740:	28 00 00 00 	lw $18,24($29)
  404744:	18 00 12 1d 
  404748:	28 00 00 00 	lw $17,20($29)
  40474c:	14 00 11 1d 
  404750:	28 00 00 00 	lw $16,16($29)
  404754:	10 00 10 1d 
  404758:	43 00 00 00 	addiu $29,$29,40
  40475c:	28 00 1d 1d 
  404760:	03 00 00 00 	jr $31
  404764:	00 00 00 1f 

00404768 <__stdio_seek>:
  404768:	43 00 00 00 	addiu $29,$29,-24
  40476c:	e8 ff 1d 1d 
  404770:	34 00 00 00 	sw $16,16($29)
  404774:	10 00 10 1d 
  404778:	42 00 00 00 	addu $16,$0,$5
  40477c:	00 10 05 00 
  404780:	34 00 00 00 	sw $31,20($29)
  404784:	14 00 1f 1d 
  404788:	28 00 00 00 	lw $5,0($16)
  40478c:	00 00 05 10 
  404790:	02 00 00 00 	jal 405730 <__lseek>
  404794:	cc 15 10 00 
  404798:	09 00 00 00 	bltz $2,4047b8 <__stdio_seek+0x50>
  40479c:	06 00 00 02 
  4047a0:	34 00 00 00 	sw $2,0($16)
  4047a4:	00 00 02 10 
  4047a8:	42 00 00 00 	addu $2,$0,$0
  4047ac:	00 02 00 00 
  4047b0:	01 00 00 00 	j 4047c0 <__stdio_seek+0x58>
  4047b4:	f0 11 10 00 
  4047b8:	43 00 00 00 	addiu $2,$0,1
  4047bc:	01 00 02 00 
  4047c0:	28 00 00 00 	lw $31,20($29)
  4047c4:	14 00 1f 1d 
  4047c8:	28 00 00 00 	lw $16,16($29)
  4047cc:	10 00 10 1d 
  4047d0:	43 00 00 00 	addiu $29,$29,24
  4047d4:	18 00 1d 1d 
  4047d8:	03 00 00 00 	jr $31
  4047dc:	00 00 00 1f 

004047e0 <__stdio_close>:
  4047e0:	43 00 00 00 	addiu $29,$29,-24
  4047e4:	e8 ff 1d 1d 
  4047e8:	34 00 00 00 	sw $31,16($29)
  4047ec:	10 00 1f 1d 
  4047f0:	02 00 00 00 	jal 405770 <__close>
  4047f4:	dc 15 10 00 
  4047f8:	28 00 00 00 	lw $31,16($29)
  4047fc:	10 00 1f 1d 
  404800:	43 00 00 00 	addiu $29,$29,24
  404804:	18 00 1d 1d 
  404808:	03 00 00 00 	jr $31
  40480c:	00 00 00 1f 

00404810 <__stdio_fileno>:
  404810:	42 00 00 00 	addu $2,$0,$4
  404814:	00 02 04 00 
  404818:	03 00 00 00 	jr $31
  40481c:	00 00 00 1f 

00404820 <__stdio_open>:
  404820:	43 00 00 00 	addiu $29,$29,-24
  404824:	e8 ff 1d 1d 
  404828:	42 00 00 00 	addu $7,$0,$5
  40482c:	00 07 05 00 
  404830:	34 00 00 00 	sw $16,16($29)
  404834:	10 00 10 1d 
  404838:	42 00 00 00 	addu $16,$0,$6
  40483c:	00 10 06 00 
  404840:	4f 00 00 00 	andi $3,$7,3
  404844:	03 00 03 07 
  404848:	43 00 00 00 	addiu $2,$0,3
  40484c:	03 00 02 00 
  404850:	34 00 00 00 	sw $31,20($29)
  404854:	14 00 1f 1d 
  404858:	06 00 00 00 	bne $3,$2,404870 <__stdio_open+0x50>
  40485c:	04 00 02 03 
  404860:	43 00 00 00 	addiu $5,$0,2
  404864:	02 00 05 00 
  404868:	01 00 00 00 	j 404880 <__stdio_open+0x60>
  40486c:	20 12 10 00 
  404870:	53 00 00 00 	xori $5,$7,1
  404874:	01 00 05 07 
  404878:	4f 00 00 00 	andi $5,$5,1
  40487c:	01 00 05 05 
  404880:	4f 00 00 00 	andi $2,$7,4
  404884:	04 00 02 07 
  404888:	05 00 00 00 	beq $2,$0,404898 <__stdio_open+0x78>
  40488c:	02 00 00 02 
  404890:	51 00 00 00 	ori $5,$5,8
  404894:	08 00 05 05 
  404898:	4f 00 00 00 	andi $2,$7,32
  40489c:	20 00 02 07 
  4048a0:	05 00 00 00 	beq $2,$0,4048b0 <__stdio_open+0x90>
  4048a4:	02 00 00 02 
  4048a8:	51 00 00 00 	ori $5,$5,2048
  4048ac:	00 08 05 05 
  4048b0:	4f 00 00 00 	andi $2,$7,64
  4048b4:	40 00 02 07 
  4048b8:	05 00 00 00 	beq $2,$0,4048c8 <__stdio_open+0xa8>
  4048bc:	02 00 00 02 
  4048c0:	51 00 00 00 	ori $5,$5,1024
  4048c4:	00 04 05 05 
  4048c8:	4f 00 00 00 	andi $2,$7,16
  4048cc:	10 00 02 07 
  4048d0:	05 00 00 00 	beq $2,$0,4048f8 <__stdio_open+0xd8>
  4048d4:	08 00 00 02 
  4048d8:	51 00 00 00 	ori $5,$5,512
  4048dc:	00 02 05 05 
  4048e0:	43 00 00 00 	addiu $6,$0,438
  4048e4:	b6 01 06 00 
  4048e8:	02 00 00 00 	jal 4057b0 <__open>
  4048ec:	ec 15 10 00 
  4048f0:	01 00 00 00 	j 404900 <__stdio_open+0xe0>
  4048f4:	40 12 10 00 
  4048f8:	02 00 00 00 	jal 4057b0 <__open>
  4048fc:	ec 15 10 00 
  404900:	09 00 00 00 	bltz $2,404920 <__stdio_open+0x100>
  404904:	06 00 00 02 
  404908:	34 00 00 00 	sw $2,0($16)
  40490c:	00 00 02 10 
  404910:	42 00 00 00 	addu $2,$0,$0
  404914:	00 02 00 00 
  404918:	01 00 00 00 	j 404928 <__stdio_open+0x108>
  40491c:	4a 12 10 00 
  404920:	43 00 00 00 	addiu $2,$0,-1
  404924:	ff ff 02 00 
  404928:	28 00 00 00 	lw $31,20($29)
  40492c:	14 00 1f 1d 
  404930:	28 00 00 00 	lw $16,16($29)
  404934:	10 00 10 1d 
  404938:	43 00 00 00 	addiu $29,$29,24
  40493c:	18 00 1d 1d 
  404940:	03 00 00 00 	jr $31
  404944:	00 00 00 1f 

00404948 <__stdio_reopen>:
  404948:	43 00 00 00 	addiu $29,$29,-48
  40494c:	d0 ff 1d 1d 
  404950:	34 00 00 00 	sw $17,28($29)
  404954:	1c 00 11 1d 
  404958:	42 00 00 00 	addu $17,$0,$4
  40495c:	00 11 04 00 
  404960:	34 00 00 00 	sw $16,24($29)
  404964:	18 00 10 1d 
  404968:	42 00 00 00 	addu $16,$0,$5
  40496c:	00 10 05 00 
  404970:	34 00 00 00 	sw $18,32($29)
  404974:	20 00 12 1d 
  404978:	42 00 00 00 	addu $18,$0,$6
  40497c:	00 12 06 00 
  404980:	34 00 00 00 	sw $20,40($29)
  404984:	28 00 14 1d 
  404988:	42 00 00 00 	addu $20,$0,$7
  40498c:	00 14 07 00 
  404990:	34 00 00 00 	sw $19,36($29)
  404994:	24 00 13 1d 
  404998:	43 00 00 00 	addiu $19,$29,16
  40499c:	10 00 13 1d 
  4049a0:	4f 00 00 00 	andi $3,$16,3
  4049a4:	03 00 03 10 
  4049a8:	43 00 00 00 	addiu $2,$0,3
  4049ac:	03 00 02 00 
  4049b0:	34 00 00 00 	sw $31,44($29)
  4049b4:	2c 00 1f 1d 
  4049b8:	06 00 00 00 	bne $3,$2,4049d0 <__stdio_reopen+0x88>
  4049bc:	04 00 02 03 
  4049c0:	43 00 00 00 	addiu $5,$0,2
  4049c4:	02 00 05 00 
  4049c8:	01 00 00 00 	j 4049e0 <__stdio_reopen+0x98>
  4049cc:	78 12 10 00 
  4049d0:	53 00 00 00 	xori $5,$16,1
  4049d4:	01 00 05 10 
  4049d8:	4f 00 00 00 	andi $5,$5,1
  4049dc:	01 00 05 05 
  4049e0:	4f 00 00 00 	andi $2,$16,4
  4049e4:	04 00 02 10 
  4049e8:	05 00 00 00 	beq $2,$0,4049f8 <__stdio_reopen+0xb0>
  4049ec:	02 00 00 02 
  4049f0:	51 00 00 00 	ori $5,$5,8
  4049f4:	08 00 05 05 
  4049f8:	4f 00 00 00 	andi $2,$16,32
  4049fc:	20 00 02 10 
  404a00:	05 00 00 00 	beq $2,$0,404a10 <__stdio_reopen+0xc8>
  404a04:	02 00 00 02 
  404a08:	51 00 00 00 	ori $5,$5,2048
  404a0c:	00 08 05 05 
  404a10:	4f 00 00 00 	andi $2,$16,64
  404a14:	40 00 02 10 
  404a18:	05 00 00 00 	beq $2,$0,404a28 <__stdio_reopen+0xe0>
  404a1c:	02 00 00 02 
  404a20:	51 00 00 00 	ori $5,$5,1024
  404a24:	00 04 05 05 
  404a28:	4f 00 00 00 	andi $2,$16,16
  404a2c:	10 00 02 10 
  404a30:	05 00 00 00 	beq $2,$0,404a60 <__stdio_reopen+0x118>
  404a34:	0a 00 00 02 
  404a38:	42 00 00 00 	addu $4,$0,$17
  404a3c:	00 04 11 00 
  404a40:	51 00 00 00 	ori $5,$5,512
  404a44:	00 02 05 05 
  404a48:	43 00 00 00 	addiu $6,$0,438
  404a4c:	b6 01 06 00 
  404a50:	02 00 00 00 	jal 4057b0 <__open>
  404a54:	ec 15 10 00 
  404a58:	01 00 00 00 	j 404a70 <__stdio_reopen+0x128>
  404a5c:	9c 12 10 00 
  404a60:	42 00 00 00 	addu $4,$0,$17
  404a64:	00 04 11 00 
  404a68:	02 00 00 00 	jal 4057b0 <__open>
  404a6c:	ec 15 10 00 
  404a70:	0a 00 00 00 	bgez $2,404a88 <__stdio_reopen+0x140>
  404a74:	04 00 00 02 
  404a78:	43 00 00 00 	addiu $2,$0,-1
  404a7c:	ff ff 02 00 
  404a80:	01 00 00 00 	j 404a98 <__stdio_reopen+0x150>
  404a84:	a6 12 10 00 
  404a88:	34 00 00 00 	sw $2,0($19)
  404a8c:	00 00 02 13 
  404a90:	42 00 00 00 	addu $2,$0,$0
  404a94:	00 02 00 00 
  404a98:	05 00 00 00 	beq $2,$0,404be0 <__stdio_reopen+0x298>
  404a9c:	50 00 00 02 
  404aa0:	28 00 00 00 	lw $2,-32592($28)
  404aa4:	b0 80 02 1c 
  404aa8:	43 00 00 00 	addiu $2,$2,-23
  404aac:	e9 ff 02 02 
  404ab0:	5e 00 00 00 	sltiu $2,$2,2
  404ab4:	02 00 02 02 
  404ab8:	05 00 00 00 	beq $2,$0,404be0 <__stdio_reopen+0x298>
  404abc:	48 00 00 02 
  404ac0:	28 00 00 00 	lw $4,0($18)
  404ac4:	00 00 04 12 
  404ac8:	04 00 00 00 	jalr $31,$20
  404acc:	00 1f 00 14 
  404ad0:	43 00 00 00 	addiu $19,$29,16
  404ad4:	10 00 13 1d 
  404ad8:	4f 00 00 00 	andi $3,$16,3
  404adc:	03 00 03 10 
  404ae0:	43 00 00 00 	addiu $2,$0,3
  404ae4:	03 00 02 00 
  404ae8:	06 00 00 00 	bne $3,$2,404b00 <__stdio_reopen+0x1b8>
  404aec:	04 00 02 03 
  404af0:	43 00 00 00 	addiu $5,$0,2
  404af4:	02 00 05 00 
  404af8:	01 00 00 00 	j 404b10 <__stdio_reopen+0x1c8>
  404afc:	c4 12 10 00 
  404b00:	53 00 00 00 	xori $5,$16,1
  404b04:	01 00 05 10 
  404b08:	4f 00 00 00 	andi $5,$5,1
  404b0c:	01 00 05 05 
  404b10:	4f 00 00 00 	andi $2,$16,4
  404b14:	04 00 02 10 
  404b18:	05 00 00 00 	beq $2,$0,404b28 <__stdio_reopen+0x1e0>
  404b1c:	02 00 00 02 
  404b20:	51 00 00 00 	ori $5,$5,8
  404b24:	08 00 05 05 
  404b28:	4f 00 00 00 	andi $2,$16,32
  404b2c:	20 00 02 10 
  404b30:	05 00 00 00 	beq $2,$0,404b40 <__stdio_reopen+0x1f8>
  404b34:	02 00 00 02 
  404b38:	51 00 00 00 	ori $5,$5,2048
  404b3c:	00 08 05 05 
  404b40:	4f 00 00 00 	andi $2,$16,64
  404b44:	40 00 02 10 
  404b48:	05 00 00 00 	beq $2,$0,404b58 <__stdio_reopen+0x210>
  404b4c:	02 00 00 02 
  404b50:	51 00 00 00 	ori $5,$5,1024
  404b54:	00 04 05 05 
  404b58:	4f 00 00 00 	andi $2,$16,16
  404b5c:	10 00 02 10 
  404b60:	05 00 00 00 	beq $2,$0,404b90 <__stdio_reopen+0x248>
  404b64:	0a 00 00 02 
  404b68:	42 00 00 00 	addu $4,$0,$17
  404b6c:	00 04 11 00 
  404b70:	51 00 00 00 	ori $5,$5,512
  404b74:	00 02 05 05 
  404b78:	43 00 00 00 	addiu $6,$0,438
  404b7c:	b6 01 06 00 
  404b80:	02 00 00 00 	jal 4057b0 <__open>
  404b84:	ec 15 10 00 
  404b88:	01 00 00 00 	j 404ba0 <__stdio_reopen+0x258>
  404b8c:	e8 12 10 00 
  404b90:	42 00 00 00 	addu $4,$0,$17
  404b94:	00 04 11 00 
  404b98:	02 00 00 00 	jal 4057b0 <__open>
  404b9c:	ec 15 10 00 
  404ba0:	0a 00 00 00 	bgez $2,404bb8 <__stdio_reopen+0x270>
  404ba4:	04 00 00 02 
  404ba8:	43 00 00 00 	addiu $2,$0,-1
  404bac:	ff ff 02 00 
  404bb0:	01 00 00 00 	j 404bc8 <__stdio_reopen+0x280>
  404bb4:	f2 12 10 00 
  404bb8:	34 00 00 00 	sw $2,0($19)
  404bbc:	00 00 02 13 
  404bc0:	42 00 00 00 	addu $2,$0,$0
  404bc4:	00 02 00 00 
  404bc8:	05 00 00 00 	beq $2,$0,404be0 <__stdio_reopen+0x298>
  404bcc:	04 00 00 02 
  404bd0:	43 00 00 00 	addiu $2,$0,-1
  404bd4:	ff ff 02 00 
  404bd8:	01 00 00 00 	j 404c38 <__stdio_reopen+0x2f0>
  404bdc:	0e 13 10 00 
  404be0:	28 00 00 00 	lw $4,16($29)
  404be4:	10 00 04 1d 
  404be8:	28 00 00 00 	lw $5,0($18)
  404bec:	00 00 05 12 
  404bf0:	05 00 00 00 	beq $4,$5,404c30 <__stdio_reopen+0x2e8>
  404bf4:	0e 00 05 04 
  404bf8:	a2 00 00 00 	lui $2,64
  404bfc:	40 00 02 00 
  404c00:	43 00 00 00 	addiu $2,$2,18400
  404c04:	e0 47 02 02 
  404c08:	06 00 00 00 	bne $20,$2,404c20 <__stdio_reopen+0x2d8>
  404c0c:	04 00 02 14 
  404c10:	02 00 00 00 	jal 4057f0 <__dup2>
  404c14:	fc 15 10 00 
  404c18:	0a 00 00 00 	bgez $2,404c30 <__stdio_reopen+0x2e8>
  404c1c:	04 00 00 02 
  404c20:	28 00 00 00 	lw $2,16($29)
  404c24:	10 00 02 1d 
  404c28:	34 00 00 00 	sw $2,0($18)
  404c2c:	00 00 02 12 
  404c30:	42 00 00 00 	addu $2,$0,$0
  404c34:	00 02 00 00 
  404c38:	28 00 00 00 	lw $31,44($29)
  404c3c:	2c 00 1f 1d 
  404c40:	28 00 00 00 	lw $20,40($29)
  404c44:	28 00 14 1d 
  404c48:	28 00 00 00 	lw $19,36($29)
  404c4c:	24 00 13 1d 
  404c50:	28 00 00 00 	lw $18,32($29)
  404c54:	20 00 12 1d 
  404c58:	28 00 00 00 	lw $17,28($29)
  404c5c:	1c 00 11 1d 
  404c60:	28 00 00 00 	lw $16,24($29)
  404c64:	18 00 10 1d 
  404c68:	43 00 00 00 	addiu $29,$29,48
  404c6c:	30 00 1d 1d 
  404c70:	03 00 00 00 	jr $31
  404c74:	00 00 00 1f 
	...

00404c80 <__sbrk>:
  404c80:	43 00 00 00 	addiu $29,$29,-24
  404c84:	e8 ff 1d 1d 
  404c88:	34 00 00 00 	sw $31,20($29)
  404c8c:	14 00 1f 1d 
  404c90:	34 00 00 00 	sw $16,16($29)
  404c94:	10 00 10 1d 
  404c98:	06 00 00 00 	bne $4,$0,404cb0 <__sbrk+0x30>
  404c9c:	04 00 00 04 
  404ca0:	28 00 00 00 	lw $2,-32640($28)
  404ca4:	80 80 02 1c 
  404ca8:	01 00 00 00 	j 404ce8 <__sbrk+0x68>
  404cac:	3a 13 10 00 
  404cb0:	28 00 00 00 	lw $16,-32640($28)
  404cb4:	80 80 10 1c 
  404cb8:	42 00 00 00 	addu $4,$16,$4
  404cbc:	00 04 04 10 
  404cc0:	02 00 00 00 	jal 405820 <__brk>
  404cc4:	08 16 10 00 
  404cc8:	42 00 00 00 	addu $3,$0,$2
  404ccc:	00 03 02 00 
  404cd0:	43 00 00 00 	addiu $2,$0,-1
  404cd4:	ff ff 02 00 
  404cd8:	09 00 00 00 	bltz $3,404ce8 <__sbrk+0x68>
  404cdc:	02 00 00 03 
  404ce0:	42 00 00 00 	addu $2,$0,$16
  404ce4:	00 02 10 00 
  404ce8:	28 00 00 00 	lw $31,20($29)
  404cec:	14 00 1f 1d 
  404cf0:	28 00 00 00 	lw $16,16($29)
  404cf4:	10 00 10 1d 
  404cf8:	43 00 00 00 	addiu $29,$29,24
  404cfc:	18 00 1d 1d 
  404d00:	03 00 00 00 	jr $31
  404d04:	00 00 00 1f 
	...

00404d10 <_wordcopy_fwd_aligned>:
  404d10:	4f 00 00 00 	andi $7,$6,7
  404d14:	07 00 07 06 
  404d18:	5e 00 00 00 	sltiu $2,$7,8
  404d1c:	08 00 02 07 
  404d20:	05 00 00 00 	beq $2,$0,404e70 <_wordcopy_fwd_aligned+0x160>
  404d24:	52 00 00 02 
  404d28:	55 00 00 00 	sll $2,$7,0x2
  404d2c:	02 02 07 00 
  404d30:	a2 00 00 00 	lui $1,4096
  404d34:	00 10 01 00 
  404d38:	42 00 00 00 	addu $1,$1,$2
  404d3c:	00 01 02 01 
  404d40:	28 00 00 00 	lw $2,32($1)
  404d44:	20 00 02 01 
  404d48:	03 00 00 00 	jr $2
  404d4c:	00 00 00 02 
  404d50:	28 00 00 00 	lw $2,0($5)
  404d54:	00 00 02 05 
  404d58:	43 00 00 00 	addiu $4,$4,-28
  404d5c:	e4 ff 04 04 
  404d60:	43 00 00 00 	addiu $6,$6,6
  404d64:	06 00 06 06 
  404d68:	43 00 00 00 	addiu $5,$5,-24
  404d6c:	e8 ff 05 05 
  404d70:	01 00 00 00 	j 404ee0 <_wordcopy_fwd_aligned+0x1d0>
  404d74:	b8 13 10 00 
  404d78:	28 00 00 00 	lw $3,0($5)
  404d7c:	00 00 03 05 
  404d80:	43 00 00 00 	addiu $4,$4,-24
  404d84:	e8 ff 04 04 
  404d88:	43 00 00 00 	addiu $6,$6,5
  404d8c:	05 00 06 06 
  404d90:	43 00 00 00 	addiu $5,$5,-20
  404d94:	ec ff 05 05 
  404d98:	01 00 00 00 	j 404ed0 <_wordcopy_fwd_aligned+0x1c0>
  404d9c:	b4 13 10 00 
  404da0:	28 00 00 00 	lw $2,0($5)
  404da4:	00 00 02 05 
  404da8:	43 00 00 00 	addiu $4,$4,-20
  404dac:	ec ff 04 04 
  404db0:	43 00 00 00 	addiu $6,$6,4
  404db4:	04 00 06 06 
  404db8:	43 00 00 00 	addiu $5,$5,-16
  404dbc:	f0 ff 05 05 
  404dc0:	01 00 00 00 	j 404ec0 <_wordcopy_fwd_aligned+0x1b0>
  404dc4:	b0 13 10 00 
  404dc8:	28 00 00 00 	lw $3,0($5)
  404dcc:	00 00 03 05 
  404dd0:	43 00 00 00 	addiu $4,$4,-16
  404dd4:	f0 ff 04 04 
  404dd8:	43 00 00 00 	addiu $6,$6,3
  404ddc:	03 00 06 06 
  404de0:	43 00 00 00 	addiu $5,$5,-12
  404de4:	f4 ff 05 05 
  404de8:	01 00 00 00 	j 404eb0 <_wordcopy_fwd_aligned+0x1a0>
  404dec:	ac 13 10 00 
  404df0:	28 00 00 00 	lw $2,0($5)
  404df4:	00 00 02 05 
  404df8:	43 00 00 00 	addiu $4,$4,-12
  404dfc:	f4 ff 04 04 
  404e00:	43 00 00 00 	addiu $6,$6,2
  404e04:	02 00 06 06 
  404e08:	43 00 00 00 	addiu $5,$5,-8
  404e0c:	f8 ff 05 05 
  404e10:	01 00 00 00 	j 404ea0 <_wordcopy_fwd_aligned+0x190>
  404e14:	a8 13 10 00 
  404e18:	28 00 00 00 	lw $3,0($5)
  404e1c:	00 00 03 05 
  404e20:	43 00 00 00 	addiu $4,$4,-8
  404e24:	f8 ff 04 04 
  404e28:	43 00 00 00 	addiu $6,$6,1
  404e2c:	01 00 06 06 
  404e30:	43 00 00 00 	addiu $5,$5,-4
  404e34:	fc ff 05 05 
  404e38:	01 00 00 00 	j 404e90 <_wordcopy_fwd_aligned+0x180>
  404e3c:	a4 13 10 00 
  404e40:	28 00 00 00 	lw $2,0($5)
  404e44:	00 00 02 05 
  404e48:	43 00 00 00 	addiu $4,$4,-4
  404e4c:	fc ff 04 04 
  404e50:	01 00 00 00 	j 404e80 <_wordcopy_fwd_aligned+0x170>
  404e54:	a0 13 10 00 
  404e58:	28 00 00 00 	lw $3,0($5)
  404e5c:	00 00 03 05 
  404e60:	43 00 00 00 	addiu $6,$6,-1
  404e64:	ff ff 06 06 
  404e68:	43 00 00 00 	addiu $5,$5,4
  404e6c:	04 00 05 05 
  404e70:	28 00 00 00 	lw $2,0($5)
  404e74:	00 00 02 05 
  404e78:	34 00 00 00 	sw $3,0($4)
  404e7c:	00 00 03 04 
  404e80:	28 00 00 00 	lw $3,4($5)
  404e84:	04 00 03 05 
  404e88:	34 00 00 00 	sw $2,4($4)
  404e8c:	04 00 02 04 
  404e90:	28 00 00 00 	lw $2,8($5)
  404e94:	08 00 02 05 
  404e98:	34 00 00 00 	sw $3,8($4)
  404e9c:	08 00 03 04 
  404ea0:	28 00 00 00 	lw $3,12($5)
  404ea4:	0c 00 03 05 
  404ea8:	34 00 00 00 	sw $2,12($4)
  404eac:	0c 00 02 04 
  404eb0:	28 00 00 00 	lw $2,16($5)
  404eb4:	10 00 02 05 
  404eb8:	34 00 00 00 	sw $3,16($4)
  404ebc:	10 00 03 04 
  404ec0:	28 00 00 00 	lw $3,20($5)
  404ec4:	14 00 03 05 
  404ec8:	34 00 00 00 	sw $2,20($4)
  404ecc:	14 00 02 04 
  404ed0:	28 00 00 00 	lw $2,24($5)
  404ed4:	18 00 02 05 
  404ed8:	34 00 00 00 	sw $3,24($4)
  404edc:	18 00 03 04 
  404ee0:	28 00 00 00 	lw $3,28($5)
  404ee4:	1c 00 03 05 
  404ee8:	43 00 00 00 	addiu $6,$6,-8
  404eec:	f8 ff 06 06 
  404ef0:	43 00 00 00 	addiu $5,$5,32
  404ef4:	20 00 05 05 
  404ef8:	34 00 00 00 	sw $2,28($4)
  404efc:	1c 00 02 04 
  404f00:	43 00 00 00 	addiu $4,$4,32
  404f04:	20 00 04 04 
  404f08:	06 00 00 00 	bne $6,$0,404e70 <_wordcopy_fwd_aligned+0x160>
  404f0c:	d8 ff 00 06 
  404f10:	34 00 00 00 	sw $3,0($4)
  404f14:	00 00 03 04 
  404f18:	03 00 00 00 	jr $31
  404f1c:	00 00 00 1f 

00404f20 <_wordcopy_fwd_dest_aligned>:
  404f20:	4f 00 00 00 	andi $3,$5,3
  404f24:	03 00 03 05 
  404f28:	43 00 00 00 	addiu $2,$0,-4
  404f2c:	fc ff 02 00 
  404f30:	4e 00 00 00 	and $5,$5,$2
  404f34:	00 05 02 05 
  404f38:	55 00 00 00 	sll $11,$3,0x3
  404f3c:	03 0b 03 00 
  404f40:	43 00 00 00 	addiu $2,$0,32
  404f44:	20 00 02 00 
  404f48:	45 00 00 00 	subu $12,$2,$11
  404f4c:	00 0c 0b 02 
  404f50:	4f 00 00 00 	andi $3,$6,3
  404f54:	03 00 03 06 
  404f58:	43 00 00 00 	addiu $2,$0,1
  404f5c:	01 00 02 00 
  404f60:	05 00 00 00 	beq $3,$2,405018 <_wordcopy_fwd_dest_aligned+0xf8>
  404f64:	2c 00 02 03 
  404f68:	05 00 00 00 	beq $3,$0,404ff0 <_wordcopy_fwd_dest_aligned+0xd0>
  404f6c:	20 00 00 03 
  404f70:	43 00 00 00 	addiu $2,$0,2
  404f74:	02 00 02 00 
  404f78:	05 00 00 00 	beq $3,$2,404f98 <_wordcopy_fwd_dest_aligned+0x78>
  404f7c:	06 00 02 03 
  404f80:	43 00 00 00 	addiu $2,$0,3
  404f84:	03 00 02 00 
  404f88:	05 00 00 00 	beq $3,$2,404fc8 <_wordcopy_fwd_dest_aligned+0xa8>
  404f8c:	0e 00 02 03 
  404f90:	01 00 00 00 	j 405038 <_wordcopy_fwd_dest_aligned+0x118>
  404f94:	0e 14 10 00 
  404f98:	28 00 00 00 	lw $8,0($5)
  404f9c:	00 00 08 05 
  404fa0:	28 00 00 00 	lw $9,4($5)
  404fa4:	04 00 09 05 
  404fa8:	43 00 00 00 	addiu $4,$4,-12
  404fac:	f4 ff 04 04 
  404fb0:	43 00 00 00 	addiu $6,$6,2
  404fb4:	02 00 06 06 
  404fb8:	43 00 00 00 	addiu $5,$5,-4
  404fbc:	fc ff 05 05 
  404fc0:	01 00 00 00 	j 4050b0 <_wordcopy_fwd_dest_aligned+0x190>
  404fc4:	2c 14 10 00 
  404fc8:	28 00 00 00 	lw $7,0($5)
  404fcc:	00 00 07 05 
  404fd0:	28 00 00 00 	lw $8,4($5)
  404fd4:	04 00 08 05 
  404fd8:	43 00 00 00 	addiu $4,$4,-8
  404fdc:	f8 ff 04 04 
  404fe0:	43 00 00 00 	addiu $6,$6,1
  404fe4:	01 00 06 06 
  404fe8:	01 00 00 00 	j 405088 <_wordcopy_fwd_dest_aligned+0x168>
  404fec:	22 14 10 00 
  404ff0:	28 00 00 00 	lw $10,0($5)
  404ff4:	00 00 0a 05 
  404ff8:	28 00 00 00 	lw $7,4($5)
  404ffc:	04 00 07 05 
  405000:	43 00 00 00 	addiu $4,$4,-4
  405004:	fc ff 04 04 
  405008:	43 00 00 00 	addiu $5,$5,4
  40500c:	04 00 05 05 
  405010:	01 00 00 00 	j 405060 <_wordcopy_fwd_dest_aligned+0x140>
  405014:	18 14 10 00 
  405018:	28 00 00 00 	lw $9,0($5)
  40501c:	00 00 09 05 
  405020:	28 00 00 00 	lw $10,4($5)
  405024:	04 00 0a 05 
  405028:	43 00 00 00 	addiu $6,$6,-1
  40502c:	ff ff 06 06 
  405030:	43 00 00 00 	addiu $5,$5,8
  405034:	08 00 05 05 
  405038:	28 00 00 00 	lw $7,0($5)
  40503c:	00 00 07 05 
  405040:	58 00 00 00 	srlv $2,$9,$11
  405044:	00 02 09 0b 
  405048:	56 00 00 00 	sllv $3,$10,$12
  40504c:	00 03 0a 0c 
  405050:	50 00 00 00 	or $2,$2,$3
  405054:	00 02 03 02 
  405058:	34 00 00 00 	sw $2,0($4)
  40505c:	00 00 02 04 
  405060:	28 00 00 00 	lw $8,4($5)
  405064:	04 00 08 05 
  405068:	58 00 00 00 	srlv $2,$10,$11
  40506c:	00 02 0a 0b 
  405070:	56 00 00 00 	sllv $3,$7,$12
  405074:	00 03 07 0c 
  405078:	50 00 00 00 	or $2,$2,$3
  40507c:	00 02 03 02 
  405080:	34 00 00 00 	sw $2,4($4)
  405084:	04 00 02 04 
  405088:	28 00 00 00 	lw $9,8($5)
  40508c:	08 00 09 05 
  405090:	58 00 00 00 	srlv $2,$7,$11
  405094:	00 02 07 0b 
  405098:	56 00 00 00 	sllv $3,$8,$12
  40509c:	00 03 08 0c 
  4050a0:	50 00 00 00 	or $2,$2,$3
  4050a4:	00 02 03 02 
  4050a8:	34 00 00 00 	sw $2,8($4)
  4050ac:	08 00 02 04 
  4050b0:	28 00 00 00 	lw $10,12($5)
  4050b4:	0c 00 0a 05 
  4050b8:	43 00 00 00 	addiu $6,$6,-4
  4050bc:	fc ff 06 06 
  4050c0:	58 00 00 00 	srlv $2,$8,$11
  4050c4:	00 02 08 0b 
  4050c8:	56 00 00 00 	sllv $3,$9,$12
  4050cc:	00 03 09 0c 
  4050d0:	50 00 00 00 	or $2,$2,$3
  4050d4:	00 02 03 02 
  4050d8:	43 00 00 00 	addiu $5,$5,16
  4050dc:	10 00 05 05 
  4050e0:	34 00 00 00 	sw $2,12($4)
  4050e4:	0c 00 02 04 
  4050e8:	43 00 00 00 	addiu $4,$4,16
  4050ec:	10 00 04 04 
  4050f0:	06 00 00 00 	bne $6,$0,405038 <_wordcopy_fwd_dest_aligned+0x118>
  4050f4:	d0 ff 00 06 
  4050f8:	58 00 00 00 	srlv $2,$9,$11
  4050fc:	00 02 09 0b 
  405100:	56 00 00 00 	sllv $3,$10,$12
  405104:	00 03 0a 0c 
  405108:	50 00 00 00 	or $2,$2,$3
  40510c:	00 02 03 02 
  405110:	34 00 00 00 	sw $2,0($4)
  405114:	00 00 02 04 
  405118:	03 00 00 00 	jr $31
  40511c:	00 00 00 1f 

00405120 <_wordcopy_bwd_aligned>:
  405120:	4f 00 00 00 	andi $7,$6,7
  405124:	07 00 07 06 
  405128:	5e 00 00 00 	sltiu $2,$7,8
  40512c:	08 00 02 07 
  405130:	05 00 00 00 	beq $2,$0,405290 <_wordcopy_bwd_aligned+0x170>
  405134:	56 00 00 02 
  405138:	55 00 00 00 	sll $2,$7,0x2
  40513c:	02 02 07 00 
  405140:	a2 00 00 00 	lui $1,4096
  405144:	00 10 01 00 
  405148:	42 00 00 00 	addu $1,$1,$2
  40514c:	00 01 02 01 
  405150:	28 00 00 00 	lw $2,64($1)
  405154:	40 00 02 01 
  405158:	03 00 00 00 	jr $2
  40515c:	00 00 00 02 
  405160:	43 00 00 00 	addiu $5,$5,-8
  405164:	f8 ff 05 05 
  405168:	28 00 00 00 	lw $2,4($5)
  40516c:	04 00 02 05 
  405170:	43 00 00 00 	addiu $4,$4,-4
  405174:	fc ff 04 04 
  405178:	43 00 00 00 	addiu $6,$6,6
  40517c:	06 00 06 06 
  405180:	01 00 00 00 	j 405300 <_wordcopy_bwd_aligned+0x1e0>
  405184:	c0 14 10 00 
  405188:	43 00 00 00 	addiu $5,$5,-12
  40518c:	f4 ff 05 05 
  405190:	28 00 00 00 	lw $3,8($5)
  405194:	08 00 03 05 
  405198:	43 00 00 00 	addiu $4,$4,-8
  40519c:	f8 ff 04 04 
  4051a0:	43 00 00 00 	addiu $6,$6,5
  4051a4:	05 00 06 06 
  4051a8:	01 00 00 00 	j 4052f0 <_wordcopy_bwd_aligned+0x1d0>
  4051ac:	bc 14 10 00 
  4051b0:	43 00 00 00 	addiu $5,$5,-16
  4051b4:	f0 ff 05 05 
  4051b8:	28 00 00 00 	lw $2,12($5)
  4051bc:	0c 00 02 05 
  4051c0:	43 00 00 00 	addiu $4,$4,-12
  4051c4:	f4 ff 04 04 
  4051c8:	43 00 00 00 	addiu $6,$6,4
  4051cc:	04 00 06 06 
  4051d0:	01 00 00 00 	j 4052e0 <_wordcopy_bwd_aligned+0x1c0>
  4051d4:	b8 14 10 00 
  4051d8:	43 00 00 00 	addiu $5,$5,-20
  4051dc:	ec ff 05 05 
  4051e0:	28 00 00 00 	lw $3,16($5)
  4051e4:	10 00 03 05 
  4051e8:	43 00 00 00 	addiu $4,$4,-16
  4051ec:	f0 ff 04 04 
  4051f0:	43 00 00 00 	addiu $6,$6,3
  4051f4:	03 00 06 06 
  4051f8:	01 00 00 00 	j 4052d0 <_wordcopy_bwd_aligned+0x1b0>
  4051fc:	b4 14 10 00 
  405200:	43 00 00 00 	addiu $5,$5,-24
  405204:	e8 ff 05 05 
  405208:	28 00 00 00 	lw $2,20($5)
  40520c:	14 00 02 05 
  405210:	43 00 00 00 	addiu $4,$4,-20
  405214:	ec ff 04 04 
  405218:	43 00 00 00 	addiu $6,$6,2
  40521c:	02 00 06 06 
  405220:	01 00 00 00 	j 4052c0 <_wordcopy_bwd_aligned+0x1a0>
  405224:	b0 14 10 00 
  405228:	43 00 00 00 	addiu $5,$5,-28
  40522c:	e4 ff 05 05 
  405230:	28 00 00 00 	lw $3,24($5)
  405234:	18 00 03 05 
  405238:	43 00 00 00 	addiu $4,$4,-24
  40523c:	e8 ff 04 04 
  405240:	43 00 00 00 	addiu $6,$6,1
  405244:	01 00 06 06 
  405248:	01 00 00 00 	j 4052b0 <_wordcopy_bwd_aligned+0x190>
  40524c:	ac 14 10 00 
  405250:	43 00 00 00 	addiu $5,$5,-32
  405254:	e0 ff 05 05 
  405258:	28 00 00 00 	lw $2,28($5)
  40525c:	1c 00 02 05 
  405260:	43 00 00 00 	addiu $4,$4,-28
  405264:	e4 ff 04 04 
  405268:	01 00 00 00 	j 4052a0 <_wordcopy_bwd_aligned+0x180>
  40526c:	a8 14 10 00 
  405270:	43 00 00 00 	addiu $5,$5,-36
  405274:	dc ff 05 05 
  405278:	43 00 00 00 	addiu $4,$4,-32
  40527c:	e0 ff 04 04 
  405280:	28 00 00 00 	lw $3,32($5)
  405284:	20 00 03 05 
  405288:	43 00 00 00 	addiu $6,$6,-1
  40528c:	ff ff 06 06 
  405290:	28 00 00 00 	lw $2,28($5)
  405294:	1c 00 02 05 
  405298:	34 00 00 00 	sw $3,28($4)
  40529c:	1c 00 03 04 
  4052a0:	28 00 00 00 	lw $3,24($5)
  4052a4:	18 00 03 05 
  4052a8:	34 00 00 00 	sw $2,24($4)
  4052ac:	18 00 02 04 
  4052b0:	28 00 00 00 	lw $2,20($5)
  4052b4:	14 00 02 05 
  4052b8:	34 00 00 00 	sw $3,20($4)
  4052bc:	14 00 03 04 
  4052c0:	28 00 00 00 	lw $3,16($5)
  4052c4:	10 00 03 05 
  4052c8:	34 00 00 00 	sw $2,16($4)
  4052cc:	10 00 02 04 
  4052d0:	28 00 00 00 	lw $2,12($5)
  4052d4:	0c 00 02 05 
  4052d8:	34 00 00 00 	sw $3,12($4)
  4052dc:	0c 00 03 04 
  4052e0:	28 00 00 00 	lw $3,8($5)
  4052e4:	08 00 03 05 
  4052e8:	34 00 00 00 	sw $2,8($4)
  4052ec:	08 00 02 04 
  4052f0:	28 00 00 00 	lw $2,4($5)
  4052f4:	04 00 02 05 
  4052f8:	34 00 00 00 	sw $3,4($4)
  4052fc:	04 00 03 04 
  405300:	28 00 00 00 	lw $3,0($5)
  405304:	00 00 03 05 
  405308:	43 00 00 00 	addiu $6,$6,-8
  40530c:	f8 ff 06 06 
  405310:	43 00 00 00 	addiu $5,$5,-32
  405314:	e0 ff 05 05 
  405318:	34 00 00 00 	sw $2,0($4)
  40531c:	00 00 02 04 
  405320:	43 00 00 00 	addiu $4,$4,-32
  405324:	e0 ff 04 04 
  405328:	06 00 00 00 	bne $6,$0,405290 <_wordcopy_bwd_aligned+0x170>
  40532c:	d8 ff 00 06 
  405330:	34 00 00 00 	sw $3,28($4)
  405334:	1c 00 03 04 
  405338:	03 00 00 00 	jr $31
  40533c:	00 00 00 1f 

00405340 <_wordcopy_bwd_dest_aligned>:
  405340:	4f 00 00 00 	andi $3,$5,3
  405344:	03 00 03 05 
  405348:	43 00 00 00 	addiu $2,$0,-4
  40534c:	fc ff 02 00 
  405350:	4e 00 00 00 	and $5,$5,$2
  405354:	00 05 02 05 
  405358:	43 00 00 00 	addiu $5,$5,4
  40535c:	04 00 05 05 
  405360:	55 00 00 00 	sll $11,$3,0x3
  405364:	03 0b 03 00 
  405368:	43 00 00 00 	addiu $2,$0,32
  40536c:	20 00 02 00 
  405370:	45 00 00 00 	subu $12,$2,$11
  405374:	00 0c 0b 02 
  405378:	4f 00 00 00 	andi $3,$6,3
  40537c:	03 00 03 06 
  405380:	43 00 00 00 	addiu $2,$0,1
  405384:	01 00 02 00 
  405388:	05 00 00 00 	beq $3,$2,405448 <_wordcopy_bwd_dest_aligned+0x108>
  40538c:	2e 00 02 03 
  405390:	05 00 00 00 	beq $3,$0,405420 <_wordcopy_bwd_dest_aligned+0xe0>
  405394:	22 00 00 03 
  405398:	43 00 00 00 	addiu $2,$0,2
  40539c:	02 00 02 00 
  4053a0:	05 00 00 00 	beq $3,$2,4053c0 <_wordcopy_bwd_dest_aligned+0x80>
  4053a4:	06 00 02 03 
  4053a8:	43 00 00 00 	addiu $2,$0,3
  4053ac:	03 00 02 00 
  4053b0:	05 00 00 00 	beq $3,$2,4053f0 <_wordcopy_bwd_dest_aligned+0xb0>
  4053b4:	0e 00 02 03 
  4053b8:	01 00 00 00 	j 405470 <_wordcopy_bwd_dest_aligned+0x130>
  4053bc:	1c 15 10 00 
  4053c0:	43 00 00 00 	addiu $5,$5,-12
  4053c4:	f4 ff 05 05 
  4053c8:	28 00 00 00 	lw $8,8($5)
  4053cc:	08 00 08 05 
  4053d0:	28 00 00 00 	lw $10,4($5)
  4053d4:	04 00 0a 05 
  4053d8:	43 00 00 00 	addiu $4,$4,-4
  4053dc:	fc ff 04 04 
  4053e0:	43 00 00 00 	addiu $6,$6,2
  4053e4:	02 00 06 06 
  4053e8:	01 00 00 00 	j 4054e8 <_wordcopy_bwd_dest_aligned+0x1a8>
  4053ec:	3a 15 10 00 
  4053f0:	43 00 00 00 	addiu $5,$5,-16
  4053f4:	f0 ff 05 05 
  4053f8:	28 00 00 00 	lw $7,12($5)
  4053fc:	0c 00 07 05 
  405400:	28 00 00 00 	lw $8,8($5)
  405404:	08 00 08 05 
  405408:	43 00 00 00 	addiu $4,$4,-8
  40540c:	f8 ff 04 04 
  405410:	43 00 00 00 	addiu $6,$6,1
  405414:	01 00 06 06 
  405418:	01 00 00 00 	j 4054c0 <_wordcopy_bwd_dest_aligned+0x180>
  40541c:	30 15 10 00 
  405420:	43 00 00 00 	addiu $5,$5,-20
  405424:	ec ff 05 05 
  405428:	28 00 00 00 	lw $9,16($5)
  40542c:	10 00 09 05 
  405430:	28 00 00 00 	lw $7,12($5)
  405434:	0c 00 07 05 
  405438:	43 00 00 00 	addiu $4,$4,-12
  40543c:	f4 ff 04 04 
  405440:	01 00 00 00 	j 405498 <_wordcopy_bwd_dest_aligned+0x158>
  405444:	26 15 10 00 
  405448:	43 00 00 00 	addiu $5,$5,-24
  40544c:	e8 ff 05 05 
  405450:	43 00 00 00 	addiu $4,$4,-16
  405454:	f0 ff 04 04 
  405458:	28 00 00 00 	lw $10,20($5)
  40545c:	14 00 0a 05 
  405460:	28 00 00 00 	lw $9,16($5)
  405464:	10 00 09 05 
  405468:	43 00 00 00 	addiu $6,$6,-1
  40546c:	ff ff 06 06 
  405470:	28 00 00 00 	lw $7,12($5)
  405474:	0c 00 07 05 
  405478:	58 00 00 00 	srlv $2,$9,$11
  40547c:	00 02 09 0b 
  405480:	56 00 00 00 	sllv $3,$10,$12
  405484:	00 03 0a 0c 
  405488:	50 00 00 00 	or $2,$2,$3
  40548c:	00 02 03 02 
  405490:	34 00 00 00 	sw $2,12($4)
  405494:	0c 00 02 04 
  405498:	28 00 00 00 	lw $8,8($5)
  40549c:	08 00 08 05 
  4054a0:	58 00 00 00 	srlv $2,$7,$11
  4054a4:	00 02 07 0b 
  4054a8:	56 00 00 00 	sllv $3,$9,$12
  4054ac:	00 03 09 0c 
  4054b0:	50 00 00 00 	or $2,$2,$3
  4054b4:	00 02 03 02 
  4054b8:	34 00 00 00 	sw $2,8($4)
  4054bc:	08 00 02 04 
  4054c0:	28 00 00 00 	lw $10,4($5)
  4054c4:	04 00 0a 05 
  4054c8:	58 00 00 00 	srlv $2,$8,$11
  4054cc:	00 02 08 0b 
  4054d0:	56 00 00 00 	sllv $3,$7,$12
  4054d4:	00 03 07 0c 
  4054d8:	50 00 00 00 	or $2,$2,$3
  4054dc:	00 02 03 02 
  4054e0:	34 00 00 00 	sw $2,4($4)
  4054e4:	04 00 02 04 
  4054e8:	28 00 00 00 	lw $9,0($5)
  4054ec:	00 00 09 05 
  4054f0:	43 00 00 00 	addiu $6,$6,-4
  4054f4:	fc ff 06 06 
  4054f8:	58 00 00 00 	srlv $2,$10,$11
  4054fc:	00 02 0a 0b 
  405500:	56 00 00 00 	sllv $3,$8,$12
  405504:	00 03 08 0c 
  405508:	50 00 00 00 	or $2,$2,$3
  40550c:	00 02 03 02 
  405510:	43 00 00 00 	addiu $5,$5,-16
  405514:	f0 ff 05 05 
  405518:	34 00 00 00 	sw $2,0($4)
  40551c:	00 00 02 04 
  405520:	43 00 00 00 	addiu $4,$4,-16
  405524:	f0 ff 04 04 
  405528:	06 00 00 00 	bne $6,$0,405470 <_wordcopy_bwd_dest_aligned+0x130>
  40552c:	d0 ff 00 06 
  405530:	58 00 00 00 	srlv $2,$9,$11
  405534:	00 02 09 0b 
  405538:	56 00 00 00 	sllv $3,$10,$12
  40553c:	00 03 0a 0c 
  405540:	50 00 00 00 	or $2,$2,$3
  405544:	00 02 03 02 
  405548:	34 00 00 00 	sw $2,12($4)
  40554c:	0c 00 02 04 
  405550:	03 00 00 00 	jr $31
  405554:	00 00 00 1f 
	...

00405560 <__stdio_init_stream>:
  405560:	43 00 00 00 	addiu $29,$29,-96
  405564:	a0 ff 1d 1d 
  405568:	34 00 00 00 	sw $16,80($29)
  40556c:	50 00 10 1d 
  405570:	42 00 00 00 	addu $16,$0,$4
  405574:	00 10 04 00 
  405578:	34 00 00 00 	sw $31,88($29)
  40557c:	58 00 1f 1d 
  405580:	34 00 00 00 	sw $17,84($29)
  405584:	54 00 11 1d 
  405588:	28 00 00 00 	lw $2,16($16)
  40558c:	10 00 02 10 
  405590:	28 00 00 00 	lw $17,24($16)
  405594:	18 00 11 10 
  405598:	06 00 00 00 	bne $2,$0,405670 <__stdio_init_stream+0x110>
  40559c:	34 00 00 02 
  4055a0:	28 00 00 00 	lw $2,76($16)
  4055a4:	4c 00 02 10 
  4055a8:	4f 00 00 00 	andi $2,$2,2048
  4055ac:	00 08 02 02 
  4055b0:	06 00 00 00 	bne $2,$0,405670 <__stdio_init_stream+0x110>
  4055b4:	2e 00 00 02 
  4055b8:	42 00 00 00 	addu $4,$0,$17
  4055bc:	00 04 11 00 
  4055c0:	43 00 00 00 	addiu $5,$29,16
  4055c4:	10 00 05 1d 
  4055c8:	02 00 00 00 	jal 405890 <__fstat>
  4055cc:	24 16 10 00 
  4055d0:	09 00 00 00 	bltz $2,405670 <__stdio_init_stream+0x110>
  4055d4:	26 00 00 02 
  4055d8:	26 00 00 00 	lhu $2,24($29)
  4055dc:	18 00 02 1d 
  4055e0:	4f 00 00 00 	andi $3,$2,61440
  4055e4:	00 f0 03 02 
  4055e8:	43 00 00 00 	addiu $2,$0,4096
  4055ec:	00 10 02 00 
  4055f0:	06 00 00 00 	bne $3,$2,405618 <__stdio_init_stream+0xb8>
  4055f4:	08 00 02 03 
  4055f8:	28 00 00 00 	lw $2,76($16)
  4055fc:	4c 00 02 10 
  405600:	51 00 00 00 	ori $2,$2,2048
  405604:	00 08 02 02 
  405608:	34 00 00 00 	sw $2,76($16)
  40560c:	4c 00 02 10 
  405610:	01 00 00 00 	j 405670 <__stdio_init_stream+0x110>
  405614:	9c 15 10 00 
  405618:	43 00 00 00 	addiu $2,$0,8192
  40561c:	00 20 02 00 
  405620:	06 00 00 00 	bne $3,$2,405660 <__stdio_init_stream+0x100>
  405624:	0e 00 02 03 
  405628:	42 00 00 00 	addu $4,$0,$17
  40562c:	00 04 11 00 
  405630:	02 00 00 00 	jal 4058c0 <__isatty>
  405634:	30 16 10 00 
  405638:	05 00 00 00 	beq $2,$0,405660 <__stdio_init_stream+0x100>
  40563c:	08 00 00 02 
  405640:	28 00 00 00 	lw $2,76($16)
  405644:	4c 00 02 10 
  405648:	34 00 00 00 	sw $0,40($16)
  40564c:	28 00 00 10 
  405650:	51 00 00 00 	ori $2,$2,4096
  405654:	00 10 02 02 
  405658:	34 00 00 00 	sw $2,76($16)
  40565c:	4c 00 02 10 
  405660:	28 00 00 00 	lw $2,64($29)
  405664:	40 00 02 1d 
  405668:	34 00 00 00 	sw $2,20($16)
  40566c:	14 00 02 10 
  405670:	28 00 00 00 	lw $31,88($29)
  405674:	58 00 1f 1d 
  405678:	28 00 00 00 	lw $17,84($29)
  40567c:	54 00 11 1d 
  405680:	28 00 00 00 	lw $16,80($29)
  405684:	50 00 10 1d 
  405688:	43 00 00 00 	addiu $29,$29,96
  40568c:	60 00 1d 1d 
  405690:	03 00 00 00 	jr $31
  405694:	00 00 00 1f 
	...
  4056a0:	01 00 00 00 	j 401c30 <syscall_error>
  4056a4:	0c 07 10 00 
	...

004056b0 <__read>:
  4056b0:	43 00 00 00 	addiu $2,$0,3
  4056b4:	03 00 02 00 
  4056b8:	a0 00 00 00 	syscall 
  4056bc:	00 00 00 00 
  4056c0:	06 00 00 00 	bne $7,$0,4056a0 <__stdio_init_stream+0x140>
  4056c4:	f6 ff 00 07 
	...
  4056d0:	03 00 00 00 	jr $31
  4056d4:	00 00 00 1f 
	...
  4056e0:	01 00 00 00 	j 401c30 <syscall_error>
  4056e4:	0c 07 10 00 
	...

004056f0 <__write>:
  4056f0:	43 00 00 00 	addiu $2,$0,4
  4056f4:	04 00 02 00 
  4056f8:	a0 00 00 00 	syscall 
  4056fc:	00 00 00 00 
  405700:	06 00 00 00 	bne $7,$0,4056e0 <__read+0x30>
  405704:	f6 ff 00 07 
	...
  405710:	03 00 00 00 	jr $31
  405714:	00 00 00 1f 
	...
  405720:	01 00 00 00 	j 401c30 <syscall_error>
  405724:	0c 07 10 00 
	...

00405730 <__lseek>:
  405730:	43 00 00 00 	addiu $2,$0,19
  405734:	13 00 02 00 
  405738:	a0 00 00 00 	syscall 
  40573c:	00 00 00 00 
  405740:	06 00 00 00 	bne $7,$0,405720 <__write+0x30>
  405744:	f6 ff 00 07 
	...
  405750:	03 00 00 00 	jr $31
  405754:	00 00 00 1f 
	...
  405760:	01 00 00 00 	j 401c30 <syscall_error>
  405764:	0c 07 10 00 
	...

00405770 <__close>:
  405770:	43 00 00 00 	addiu $2,$0,6
  405774:	06 00 02 00 
  405778:	a0 00 00 00 	syscall 
  40577c:	00 00 00 00 
  405780:	06 00 00 00 	bne $7,$0,405760 <__lseek+0x30>
  405784:	f6 ff 00 07 
	...
  405790:	03 00 00 00 	jr $31
  405794:	00 00 00 1f 
	...
  4057a0:	01 00 00 00 	j 401c30 <syscall_error>
  4057a4:	0c 07 10 00 
	...

004057b0 <__open>:
  4057b0:	43 00 00 00 	addiu $2,$0,5
  4057b4:	05 00 02 00 
  4057b8:	a0 00 00 00 	syscall 
  4057bc:	00 00 00 00 
  4057c0:	06 00 00 00 	bne $7,$0,4057a0 <__close+0x30>
  4057c4:	f6 ff 00 07 
	...
  4057d0:	03 00 00 00 	jr $31
  4057d4:	00 00 00 1f 
	...
  4057e0:	01 00 00 00 	j 401c30 <syscall_error>
  4057e4:	0c 07 10 00 
	...

004057f0 <__dup2>:
  4057f0:	43 00 00 00 	addiu $2,$0,90
  4057f4:	5a 00 02 00 
  4057f8:	a0 00 00 00 	syscall 
  4057fc:	00 00 00 00 
  405800:	06 00 00 00 	bne $7,$0,4057e0 <__open+0x30>
  405804:	f6 ff 00 07 
	...
  405810:	03 00 00 00 	jr $31
  405814:	00 00 00 1f 
	...

00405820 <__brk>:
  405820:	28 00 00 00 	lw $2,-32636($28)
  405824:	84 80 02 1c 
  405828:	5d 00 00 00 	sltu $1,$4,$2
  40582c:	00 01 02 04 
  405830:	05 00 00 00 	beq $1,$0,405840 <__brk+0x20>
  405834:	02 00 00 01 
  405838:	42 00 00 00 	addu $4,$0,$2
  40583c:	00 04 02 00 
  405840:	43 00 00 00 	addiu $2,$0,17
  405844:	11 00 02 00 
  405848:	a0 00 00 00 	syscall 
  40584c:	00 00 00 00 
  405850:	06 00 00 00 	bne $7,$0,405870 <__brk+0x50>
  405854:	06 00 00 07 
  405858:	34 00 00 00 	sw $4,-32640($28)
  40585c:	80 80 04 1c 
  405860:	42 00 00 00 	addu $2,$0,$0
  405864:	00 02 00 00 
  405868:	03 00 00 00 	jr $31
  40586c:	00 00 00 1f 
  405870:	01 00 00 00 	j 401c30 <syscall_error>
  405874:	0c 07 10 00 
	...
  405880:	01 00 00 00 	j 401c30 <syscall_error>
  405884:	0c 07 10 00 
	...

00405890 <__fstat>:
  405890:	43 00 00 00 	addiu $2,$0,62
  405894:	3e 00 02 00 
  405898:	a0 00 00 00 	syscall 
  40589c:	00 00 00 00 
  4058a0:	06 00 00 00 	bne $7,$0,405880 <__brk+0x60>
  4058a4:	f6 ff 00 07 
	...
  4058b0:	03 00 00 00 	jr $31
  4058b4:	00 00 00 1f 
	...

004058c0 <__isatty>:
  4058c0:	43 00 00 00 	addiu $29,$29,-32
  4058c4:	e0 ff 1d 1d 
  4058c8:	a2 00 00 00 	lui $5,16390
  4058cc:	06 40 05 00 
  4058d0:	34 00 00 00 	sw $16,24($29)
  4058d4:	18 00 10 1d 
  4058d8:	28 00 00 00 	lw $16,-32592($28)
  4058dc:	b0 80 10 1c 
  4058e0:	51 00 00 00 	ori $5,$5,29704
  4058e4:	08 74 05 05 
  4058e8:	43 00 00 00 	addiu $6,$29,16
  4058ec:	10 00 06 1d 
  4058f0:	34 00 00 00 	sw $31,28($29)
  4058f4:	1c 00 1f 1d 
  4058f8:	02 00 00 00 	jal 405940 <__ioctl>
  4058fc:	50 16 10 00 
  405900:	5e 00 00 00 	sltiu $2,$2,1
  405904:	01 00 02 02 
  405908:	34 00 00 00 	sw $16,-32592($28)
  40590c:	b0 80 10 1c 
  405910:	28 00 00 00 	lw $31,28($29)
  405914:	1c 00 1f 1d 
  405918:	28 00 00 00 	lw $16,24($29)
  40591c:	18 00 10 1d 
  405920:	43 00 00 00 	addiu $29,$29,32
  405924:	20 00 1d 1d 
  405928:	03 00 00 00 	jr $31
  40592c:	00 00 00 1f 
  405930:	01 00 00 00 	j 401c30 <syscall_error>
  405934:	0c 07 10 00 
	...

00405940 <__ioctl>:
  405940:	43 00 00 00 	addiu $2,$0,54
  405944:	36 00 02 00 
  405948:	a0 00 00 00 	syscall 
  40594c:	00 00 00 00 
  405950:	06 00 00 00 	bne $7,$0,405930 <__isatty+0x70>
  405954:	f6 ff 00 07 
	...
  405960:	03 00 00 00 	jr $31
  405964:	00 00 00 1f 
	...
Disassembly of section .rdata:

10000000 <__default_io_functions>:
10000000:	40 46 40 00 	0x00404640:00404670
10000004:	70 46 40 00 
10000008:	68 47 40 00 	0x00404768:004047e0
1000000c:	e0 47 40 00 
10000010:	10 48 40 00 	0x00404810:00000000
10000014:	00 00 00 00 
	...

10000020 <$L22>:
10000020:	40 4e 40 00 	0x00404e40:00404e58
10000024:	58 4e 40 00 
10000028:	50 4d 40 00 	0x00404d50:00404d78
1000002c:	78 4d 40 00 
10000030:	a0 4d 40 00 	0x00404da0:00404dc8
10000034:	c8 4d 40 00 
10000038:	f0 4d 40 00 	0x00404df0:00404e18
1000003c:	18 4e 40 00 

10000040 <$L87>:
10000040:	50 52 40 00 	0x00405250:00405270
10000044:	70 52 40 00 
10000048:	60 51 40 00 	0x00405160:00405188
1000004c:	88 51 40 00 
10000050:	b0 51 40 00 	0x004051b0:004051d8
10000054:	d8 51 40 00 
10000058:	00 52 40 00 	0x00405200:00405228
1000005c:	28 52 40 00 