
loop.out:     file format ss-coff-little

Disassembly of section .text:

00000000 <main>:
   0:	43 00 00 00 	addiu $29,$29,-40
   4:	d8 ff 1d 1d 
   8:	34 00 00 00 	sw $31,36($29)
   c:	24 00 1f 1d 
  10:	34 00 00 00 	sw $30,32($29)
  14:	20 00 1e 1d 
  18:	42 00 00 00 	addu $30,$0,$29
  1c:	00 1e 1d 00 
  20:	02 00 00 00 	jal 0 <main>
  24:	00 00 00 00 
  28:	43 00 00 00 	addiu $2,$0,6
  2c:	06 00 02 00 
  30:	34 00 00 00 	sw $2,16($30)
  34:	10 00 02 1e 
  38:	28 00 00 00 	lw $2,16($30)
  3c:	10 00 02 1e 
  40:	43 00 00 00 	addiu $3,$2,-1
  44:	ff ff 03 02 
  48:	42 00 00 00 	addu $2,$0,$3
  4c:	00 02 03 00 
  50:	34 00 00 00 	sw $2,16($30)
  54:	10 00 02 1e 
  58:	43 00 00 00 	addiu $3,$0,-1
  5c:	ff ff 03 00 
  60:	06 00 00 00 	bne $2,$3,70 <main+0x70>
  64:	02 00 03 02 
  68:	01 00 00 00 	j a8 <main+0xa8>
  6c:	2a 00 00 00 
  70:	28 00 00 00 	lw $2,16($30)
  74:	10 00 02 1e 
  78:	43 00 00 00 	addiu $3,$2,5
  7c:	05 00 03 02 
  80:	34 00 00 00 	sw $3,20($30)
  84:	14 00 03 1e 
  88:	28 00 00 00 	lw $2,16($30)
  8c:	10 00 02 1e 
  90:	43 00 00 00 	addiu $3,$2,2
  94:	02 00 03 02 
  98:	34 00 00 00 	sw $3,24($30)
  9c:	18 00 03 1e 
  a0:	01 00 00 00 	j 38 <main+0x38>
  a4:	0e 00 00 00 
  a8:	28 00 00 00 	lw $3,20($30)
  ac:	14 00 03 1e 
  b0:	43 00 00 00 	addiu $2,$3,1
  b4:	01 00 02 03 
  b8:	42 00 00 00 	addu $3,$0,$2
  bc:	00 03 02 00 
  c0:	34 00 00 00 	sw $3,20($30)
  c4:	14 00 03 1e 
  c8:	28 00 00 00 	lw $3,24($30)
  cc:	18 00 03 1e 
  d0:	43 00 00 00 	addiu $2,$3,1
  d4:	01 00 02 03 
  d8:	42 00 00 00 	addu $3,$0,$2
  dc:	00 03 02 00 
  e0:	34 00 00 00 	sw $3,24($30)
  e4:	18 00 03 1e 
  e8:	42 00 00 00 	addu $2,$0,$0
  ec:	00 02 00 00 
  f0:	01 00 00 00 	j f8 <main+0xf8>
  f4:	3e 00 00 00 
  f8:	42 00 00 00 	addu $29,$0,$30
  fc:	00 1d 1e 00 
 100:	28 00 00 00 	lw $31,36($29)
 104:	24 00 1f 1d 
 108:	28 00 00 00 	lw $30,32($29)
 10c:	20 00 1e 1d 
 110:	43 00 00 00 	addiu $29,$29,40
 114:	28 00 1d 1d 
 118:	03 00 00 00 	jr $31
 11c:	00 00 00 1f 